Archive member included to satisfy reference by file (symbol)

/teamspace/studios/this_studio/AI-Automated-Radiology-Report/glibc-2.34/build/libc_pic.a(check_fds.os)
                              /teamspace/studios/this_studio/AI-Automated-Radiology-Report/glibc-2.34/build/elf/dl-allobjs.os (__libc_check_standard_fds)
/teamspace/studios/this_studio/AI-Automated-Radiology-Report/glibc-2.34/build/libc_pic.a(errno.os)
                              /teamspace/studios/this_studio/AI-Automated-Radiology-Report/glibc-2.34/build/libc_pic.a(check_fds.os) (__libc_errno)
/teamspace/studios/this_studio/AI-Automated-Radiology-Report/glibc-2.34/build/libc_pic.a(setjmp.os)
                              /teamspace/studios/this_studio/AI-Automated-Radiology-Report/glibc-2.34/build/elf/dl-allobjs.os (__sigsetjmp)
/teamspace/studios/this_studio/AI-Automated-Radiology-Report/glibc-2.34/build/libc_pic.a(__longjmp.os)
                              /teamspace/studios/this_studio/AI-Automated-Radiology-Report/glibc-2.34/build/elf/dl-allobjs.os (__longjmp)
/teamspace/studios/this_studio/AI-Automated-Radiology-Report/glibc-2.34/build/libc_pic.a(lowlevellock.os)
                              /teamspace/studios/this_studio/AI-Automated-Radiology-Report/glibc-2.34/build/elf/dl-allobjs.os (__lll_lock_wait_private)
/teamspace/studios/this_studio/AI-Automated-Radiology-Report/glibc-2.34/build/libc_pic.a(scratch_buffer_set_array_size.os)
                              /teamspace/studios/this_studio/AI-Automated-Radiology-Report/glibc-2.34/build/elf/dl-allobjs.os (__libc_scratch_buffer_set_array_size)
/teamspace/studios/this_studio/AI-Automated-Radiology-Report/glibc-2.34/build/libc_pic.a(strchr.os)
                              /teamspace/studios/this_studio/AI-Automated-Radiology-Report/glibc-2.34/build/elf/dl-allobjs.os (strchr)
/teamspace/studios/this_studio/AI-Automated-Radiology-Report/glibc-2.34/build/libc_pic.a(strcmp.os)
                              /teamspace/studios/this_studio/AI-Automated-Radiology-Report/glibc-2.34/build/elf/dl-allobjs.os (strcmp)
/teamspace/studios/this_studio/AI-Automated-Radiology-Report/glibc-2.34/build/libc_pic.a(strcspn.os)
                              /teamspace/studios/this_studio/AI-Automated-Radiology-Report/glibc-2.34/build/elf/dl-allobjs.os (strcspn)
/teamspace/studios/this_studio/AI-Automated-Radiology-Report/glibc-2.34/build/libc_pic.a(strdup.os)
                              /teamspace/studios/this_studio/AI-Automated-Radiology-Report/glibc-2.34/build/elf/dl-allobjs.os (__strdup)
/teamspace/studios/this_studio/AI-Automated-Radiology-Report/glibc-2.34/build/libc_pic.a(strlen.os)
                              /teamspace/studios/this_studio/AI-Automated-Radiology-Report/glibc-2.34/build/elf/dl-allobjs.os (strlen)
/teamspace/studios/this_studio/AI-Automated-Radiology-Report/glibc-2.34/build/libc_pic.a(strnlen.os)
                              /teamspace/studios/this_studio/AI-Automated-Radiology-Report/glibc-2.34/build/elf/dl-allobjs.os (strnlen)
/teamspace/studios/this_studio/AI-Automated-Radiology-Report/glibc-2.34/build/libc_pic.a(strncmp.os)
                              /teamspace/studios/this_studio/AI-Automated-Radiology-Report/glibc-2.34/build/elf/dl-allobjs.os (strncmp)
/teamspace/studios/this_studio/AI-Automated-Radiology-Report/glibc-2.34/build/libc_pic.a(memchr.os)
                              /teamspace/studios/this_studio/AI-Automated-Radiology-Report/glibc-2.34/build/elf/dl-allobjs.os (memchr)
/teamspace/studios/this_studio/AI-Automated-Radiology-Report/glibc-2.34/build/libc_pic.a(memcmp.os)
                              /teamspace/studios/this_studio/AI-Automated-Radiology-Report/glibc-2.34/build/elf/dl-allobjs.os (memcmp)
/teamspace/studios/this_studio/AI-Automated-Radiology-Report/glibc-2.34/build/libc_pic.a(memmove.os)
                              /teamspace/studios/this_studio/AI-Automated-Radiology-Report/glibc-2.34/build/elf/dl-allobjs.os (memmove)
/teamspace/studios/this_studio/AI-Automated-Radiology-Report/glibc-2.34/build/libc_pic.a(memset.os)
                              /teamspace/studios/this_studio/AI-Automated-Radiology-Report/glibc-2.34/build/elf/dl-allobjs.os (memset)
/teamspace/studios/this_studio/AI-Automated-Radiology-Report/glibc-2.34/build/libc_pic.a(mempcpy.os)
                              /teamspace/studios/this_studio/AI-Automated-Radiology-Report/glibc-2.34/build/elf/dl-allobjs.os (__mempcpy)
/teamspace/studios/this_studio/AI-Automated-Radiology-Report/glibc-2.34/build/libc_pic.a(stpcpy.os)
                              /teamspace/studios/this_studio/AI-Automated-Radiology-Report/glibc-2.34/build/elf/dl-allobjs.os (__stpcpy)
/teamspace/studios/this_studio/AI-Automated-Radiology-Report/glibc-2.34/build/libc_pic.a(memcpy.os)
                              /teamspace/studios/this_studio/AI-Automated-Radiology-Report/glibc-2.34/build/libc_pic.a(check_fds.os) (__GI_memcpy)
/teamspace/studios/this_studio/AI-Automated-Radiology-Report/glibc-2.34/build/libc_pic.a(rawmemchr.os)
                              /teamspace/studios/this_studio/AI-Automated-Radiology-Report/glibc-2.34/build/elf/dl-allobjs.os (rawmemchr)
/teamspace/studios/this_studio/AI-Automated-Radiology-Report/glibc-2.34/build/libc_pic.a(strcmp-sse2.os)
                              /teamspace/studios/this_studio/AI-Automated-Radiology-Report/glibc-2.34/build/libc_pic.a(strcmp.os) (__strcmp_sse2)
/teamspace/studios/this_studio/AI-Automated-Radiology-Report/glibc-2.34/build/libc_pic.a(strcmp-sse2-unaligned.os)
                              /teamspace/studios/this_studio/AI-Automated-Radiology-Report/glibc-2.34/build/libc_pic.a(strcmp.os) (__strcmp_sse2_unaligned)
/teamspace/studios/this_studio/AI-Automated-Radiology-Report/glibc-2.34/build/libc_pic.a(strcmp-ssse3.os)
                              /teamspace/studios/this_studio/AI-Automated-Radiology-Report/glibc-2.34/build/libc_pic.a(strcmp.os) (__strcmp_ssse3)
/teamspace/studios/this_studio/AI-Automated-Radiology-Report/glibc-2.34/build/libc_pic.a(strcmp-avx2.os)
                              /teamspace/studios/this_studio/AI-Automated-Radiology-Report/glibc-2.34/build/libc_pic.a(strcmp.os) (__strcmp_avx2)
/teamspace/studios/this_studio/AI-Automated-Radiology-Report/glibc-2.34/build/libc_pic.a(strncmp-sse2.os)
                              /teamspace/studios/this_studio/AI-Automated-Radiology-Report/glibc-2.34/build/libc_pic.a(strncmp.os) (__strncmp_sse2)
/teamspace/studios/this_studio/AI-Automated-Radiology-Report/glibc-2.34/build/libc_pic.a(strncmp-ssse3.os)
                              /teamspace/studios/this_studio/AI-Automated-Radiology-Report/glibc-2.34/build/libc_pic.a(strncmp.os) (__strncmp_ssse3)
/teamspace/studios/this_studio/AI-Automated-Radiology-Report/glibc-2.34/build/libc_pic.a(strncmp-sse4_2.os)
                              /teamspace/studios/this_studio/AI-Automated-Radiology-Report/glibc-2.34/build/libc_pic.a(strncmp.os) (__strncmp_sse42)
/teamspace/studios/this_studio/AI-Automated-Radiology-Report/glibc-2.34/build/libc_pic.a(strncmp-avx2.os)
                              /teamspace/studios/this_studio/AI-Automated-Radiology-Report/glibc-2.34/build/libc_pic.a(strncmp.os) (__strncmp_avx2)
/teamspace/studios/this_studio/AI-Automated-Radiology-Report/glibc-2.34/build/libc_pic.a(memchr-sse2.os)
                              /teamspace/studios/this_studio/AI-Automated-Radiology-Report/glibc-2.34/build/libc_pic.a(memchr.os) (__memchr_sse2)
/teamspace/studios/this_studio/AI-Automated-Radiology-Report/glibc-2.34/build/libc_pic.a(rawmemchr-sse2.os)
                              /teamspace/studios/this_studio/AI-Automated-Radiology-Report/glibc-2.34/build/libc_pic.a(rawmemchr.os) (__rawmemchr_sse2)
/teamspace/studios/this_studio/AI-Automated-Radiology-Report/glibc-2.34/build/libc_pic.a(memchr-avx2.os)
                              /teamspace/studios/this_studio/AI-Automated-Radiology-Report/glibc-2.34/build/libc_pic.a(memchr.os) (__memchr_avx2)
/teamspace/studios/this_studio/AI-Automated-Radiology-Report/glibc-2.34/build/libc_pic.a(rawmemchr-avx2.os)
                              /teamspace/studios/this_studio/AI-Automated-Radiology-Report/glibc-2.34/build/libc_pic.a(rawmemchr.os) (__rawmemchr_avx2)
/teamspace/studios/this_studio/AI-Automated-Radiology-Report/glibc-2.34/build/libc_pic.a(memcmp-sse2.os)
                              /teamspace/studios/this_studio/AI-Automated-Radiology-Report/glibc-2.34/build/libc_pic.a(memcmp.os) (__memcmp_sse2)
/teamspace/studios/this_studio/AI-Automated-Radiology-Report/glibc-2.34/build/libc_pic.a(memcmp-avx2-movbe.os)
                              /teamspace/studios/this_studio/AI-Automated-Radiology-Report/glibc-2.34/build/libc_pic.a(memcmp.os) (__memcmp_avx2_movbe)
/teamspace/studios/this_studio/AI-Automated-Radiology-Report/glibc-2.34/build/libc_pic.a(memcmp-sse4.os)
                              /teamspace/studios/this_studio/AI-Automated-Radiology-Report/glibc-2.34/build/libc_pic.a(memcmp.os) (__memcmp_sse4_1)
/teamspace/studios/this_studio/AI-Automated-Radiology-Report/glibc-2.34/build/libc_pic.a(memcpy-ssse3.os)
                              /teamspace/studios/this_studio/AI-Automated-Radiology-Report/glibc-2.34/build/libc_pic.a(mempcpy.os) (__mempcpy_ssse3)
/teamspace/studios/this_studio/AI-Automated-Radiology-Report/glibc-2.34/build/libc_pic.a(memmove-ssse3.os)
                              /teamspace/studios/this_studio/AI-Automated-Radiology-Report/glibc-2.34/build/libc_pic.a(memmove.os) (__memmove_ssse3)
/teamspace/studios/this_studio/AI-Automated-Radiology-Report/glibc-2.34/build/libc_pic.a(memcpy-ssse3-back.os)
                              /teamspace/studios/this_studio/AI-Automated-Radiology-Report/glibc-2.34/build/libc_pic.a(mempcpy.os) (__mempcpy_ssse3_back)
/teamspace/studios/this_studio/AI-Automated-Radiology-Report/glibc-2.34/build/libc_pic.a(memmove-ssse3-back.os)
                              /teamspace/studios/this_studio/AI-Automated-Radiology-Report/glibc-2.34/build/libc_pic.a(memmove.os) (__memmove_ssse3_back)
/teamspace/studios/this_studio/AI-Automated-Radiology-Report/glibc-2.34/build/libc_pic.a(memmove-avx512-no-vzeroupper.os)
                              /teamspace/studios/this_studio/AI-Automated-Radiology-Report/glibc-2.34/build/libc_pic.a(mempcpy.os) (__mempcpy_avx512_no_vzeroupper)
/teamspace/studios/this_studio/AI-Automated-Radiology-Report/glibc-2.34/build/libc_pic.a(strchr-sse2.os)
                              /teamspace/studios/this_studio/AI-Automated-Radiology-Report/glibc-2.34/build/libc_pic.a(strchr.os) (__strchr_sse2)
/teamspace/studios/this_studio/AI-Automated-Radiology-Report/glibc-2.34/build/libc_pic.a(strchr-avx2.os)
                              /teamspace/studios/this_studio/AI-Automated-Radiology-Report/glibc-2.34/build/libc_pic.a(strchr.os) (__strchr_avx2)
/teamspace/studios/this_studio/AI-Automated-Radiology-Report/glibc-2.34/build/libc_pic.a(strlen-sse2.os)
                              /teamspace/studios/this_studio/AI-Automated-Radiology-Report/glibc-2.34/build/libc_pic.a(strlen.os) (__strlen_sse2)
/teamspace/studios/this_studio/AI-Automated-Radiology-Report/glibc-2.34/build/libc_pic.a(strnlen-sse2.os)
                              /teamspace/studios/this_studio/AI-Automated-Radiology-Report/glibc-2.34/build/libc_pic.a(strnlen.os) (__strnlen_sse2)
/teamspace/studios/this_studio/AI-Automated-Radiology-Report/glibc-2.34/build/libc_pic.a(strlen-avx2.os)
                              /teamspace/studios/this_studio/AI-Automated-Radiology-Report/glibc-2.34/build/libc_pic.a(strlen.os) (__strlen_avx2)
/teamspace/studios/this_studio/AI-Automated-Radiology-Report/glibc-2.34/build/libc_pic.a(strnlen-avx2.os)
                              /teamspace/studios/this_studio/AI-Automated-Radiology-Report/glibc-2.34/build/libc_pic.a(strnlen.os) (__strnlen_avx2)
/teamspace/studios/this_studio/AI-Automated-Radiology-Report/glibc-2.34/build/libc_pic.a(stpcpy-sse2.os)
                              /teamspace/studios/this_studio/AI-Automated-Radiology-Report/glibc-2.34/build/libc_pic.a(stpcpy.os) (__stpcpy_sse2)
/teamspace/studios/this_studio/AI-Automated-Radiology-Report/glibc-2.34/build/libc_pic.a(stpcpy-ssse3.os)
                              /teamspace/studios/this_studio/AI-Automated-Radiology-Report/glibc-2.34/build/libc_pic.a(stpcpy.os) (__stpcpy_ssse3)
/teamspace/studios/this_studio/AI-Automated-Radiology-Report/glibc-2.34/build/libc_pic.a(stpcpy-sse2-unaligned.os)
                              /teamspace/studios/this_studio/AI-Automated-Radiology-Report/glibc-2.34/build/libc_pic.a(stpcpy.os) (__stpcpy_sse2_unaligned)
/teamspace/studios/this_studio/AI-Automated-Radiology-Report/glibc-2.34/build/libc_pic.a(stpcpy-avx2.os)
                              /teamspace/studios/this_studio/AI-Automated-Radiology-Report/glibc-2.34/build/libc_pic.a(stpcpy.os) (__stpcpy_avx2)
/teamspace/studios/this_studio/AI-Automated-Radiology-Report/glibc-2.34/build/libc_pic.a(strchr-sse2-no-bsf.os)
                              /teamspace/studios/this_studio/AI-Automated-Radiology-Report/glibc-2.34/build/libc_pic.a(strchr.os) (__strchr_sse2_no_bsf)
/teamspace/studios/this_studio/AI-Automated-Radiology-Report/glibc-2.34/build/libc_pic.a(memcmp-ssse3.os)
                              /teamspace/studios/this_studio/AI-Automated-Radiology-Report/glibc-2.34/build/libc_pic.a(memcmp.os) (__memcmp_ssse3)
/teamspace/studios/this_studio/AI-Automated-Radiology-Report/glibc-2.34/build/libc_pic.a(strcspn-sse2.os)
                              /teamspace/studios/this_studio/AI-Automated-Radiology-Report/glibc-2.34/build/libc_pic.a(strcspn.os) (__strcspn_sse2)
/teamspace/studios/this_studio/AI-Automated-Radiology-Report/glibc-2.34/build/libc_pic.a(strcspn-c.os)
                              /teamspace/studios/this_studio/AI-Automated-Radiology-Report/glibc-2.34/build/libc_pic.a(strcspn.os) (__strcspn_sse42)
/teamspace/studios/this_studio/AI-Automated-Radiology-Report/glibc-2.34/build/libc_pic.a(varshift.os)
                              /teamspace/studios/this_studio/AI-Automated-Radiology-Report/glibc-2.34/build/libc_pic.a(strcspn-c.os) (___m128i_shift_right)
/teamspace/studios/this_studio/AI-Automated-Radiology-Report/glibc-2.34/build/libc_pic.a(memset-avx512-no-vzeroupper.os)
                              /teamspace/studios/this_studio/AI-Automated-Radiology-Report/glibc-2.34/build/libc_pic.a(memset.os) (__memset_avx512_no_vzeroupper)
/teamspace/studios/this_studio/AI-Automated-Radiology-Report/glibc-2.34/build/libc_pic.a(memmove-sse2-unaligned-erms.os)
                              /teamspace/studios/this_studio/AI-Automated-Radiology-Report/glibc-2.34/build/libc_pic.a(mempcpy.os) (__mempcpy_sse2_unaligned)
/teamspace/studios/this_studio/AI-Automated-Radiology-Report/glibc-2.34/build/libc_pic.a(memmove-avx-unaligned-erms.os)
                              /teamspace/studios/this_studio/AI-Automated-Radiology-Report/glibc-2.34/build/libc_pic.a(mempcpy.os) (__mempcpy_avx_unaligned)
/teamspace/studios/this_studio/AI-Automated-Radiology-Report/glibc-2.34/build/libc_pic.a(memmove-avx512-unaligned-erms.os)
                              /teamspace/studios/this_studio/AI-Automated-Radiology-Report/glibc-2.34/build/libc_pic.a(mempcpy.os) (__mempcpy_avx512_unaligned)
/teamspace/studios/this_studio/AI-Automated-Radiology-Report/glibc-2.34/build/libc_pic.a(memset-sse2-unaligned-erms.os)
                              /teamspace/studios/this_studio/AI-Automated-Radiology-Report/glibc-2.34/build/libc_pic.a(memset.os) (__memset_sse2_unaligned)
/teamspace/studios/this_studio/AI-Automated-Radiology-Report/glibc-2.34/build/libc_pic.a(memset-avx2-unaligned-erms.os)
                              /teamspace/studios/this_studio/AI-Automated-Radiology-Report/glibc-2.34/build/libc_pic.a(memset.os) (__memset_avx2_unaligned)
/teamspace/studios/this_studio/AI-Automated-Radiology-Report/glibc-2.34/build/libc_pic.a(memset-avx512-unaligned-erms.os)
                              /teamspace/studios/this_studio/AI-Automated-Radiology-Report/glibc-2.34/build/libc_pic.a(memset.os) (__memset_avx512_unaligned)
/teamspace/studios/this_studio/AI-Automated-Radiology-Report/glibc-2.34/build/libc_pic.a(memchr-avx2-rtm.os)
                              /teamspace/studios/this_studio/AI-Automated-Radiology-Report/glibc-2.34/build/libc_pic.a(memchr.os) (__memchr_avx2_rtm)
/teamspace/studios/this_studio/AI-Automated-Radiology-Report/glibc-2.34/build/libc_pic.a(memcmp-avx2-movbe-rtm.os)
                              /teamspace/studios/this_studio/AI-Automated-Radiology-Report/glibc-2.34/build/libc_pic.a(memcmp.os) (__memcmp_avx2_movbe_rtm)
/teamspace/studios/this_studio/AI-Automated-Radiology-Report/glibc-2.34/build/libc_pic.a(memmove-avx-unaligned-erms-rtm.os)
                              /teamspace/studios/this_studio/AI-Automated-Radiology-Report/glibc-2.34/build/libc_pic.a(mempcpy.os) (__mempcpy_avx_unaligned_rtm)
/teamspace/studios/this_studio/AI-Automated-Radiology-Report/glibc-2.34/build/libc_pic.a(memset-avx2-unaligned-erms-rtm.os)
                              /teamspace/studios/this_studio/AI-Automated-Radiology-Report/glibc-2.34/build/libc_pic.a(memset.os) (__memset_avx2_unaligned_rtm)
/teamspace/studios/this_studio/AI-Automated-Radiology-Report/glibc-2.34/build/libc_pic.a(rawmemchr-avx2-rtm.os)
                              /teamspace/studios/this_studio/AI-Automated-Radiology-Report/glibc-2.34/build/libc_pic.a(rawmemchr.os) (__rawmemchr_avx2_rtm)
/teamspace/studios/this_studio/AI-Automated-Radiology-Report/glibc-2.34/build/libc_pic.a(strchr-avx2-rtm.os)
                              /teamspace/studios/this_studio/AI-Automated-Radiology-Report/glibc-2.34/build/libc_pic.a(strchr.os) (__strchr_avx2_rtm)
/teamspace/studios/this_studio/AI-Automated-Radiology-Report/glibc-2.34/build/libc_pic.a(strcmp-avx2-rtm.os)
                              /teamspace/studios/this_studio/AI-Automated-Radiology-Report/glibc-2.34/build/libc_pic.a(strcmp.os) (__strcmp_avx2_rtm)
/teamspace/studios/this_studio/AI-Automated-Radiology-Report/glibc-2.34/build/libc_pic.a(stpcpy-avx2-rtm.os)
                              /teamspace/studios/this_studio/AI-Automated-Radiology-Report/glibc-2.34/build/libc_pic.a(stpcpy.os) (__stpcpy_avx2_rtm)
/teamspace/studios/this_studio/AI-Automated-Radiology-Report/glibc-2.34/build/libc_pic.a(strlen-avx2-rtm.os)
                              /teamspace/studios/this_studio/AI-Automated-Radiology-Report/glibc-2.34/build/libc_pic.a(strlen.os) (__strlen_avx2_rtm)
/teamspace/studios/this_studio/AI-Automated-Radiology-Report/glibc-2.34/build/libc_pic.a(strncmp-avx2-rtm.os)
                              /teamspace/studios/this_studio/AI-Automated-Radiology-Report/glibc-2.34/build/libc_pic.a(strncmp.os) (__strncmp_avx2_rtm)
/teamspace/studios/this_studio/AI-Automated-Radiology-Report/glibc-2.34/build/libc_pic.a(strnlen-avx2-rtm.os)
                              /teamspace/studios/this_studio/AI-Automated-Radiology-Report/glibc-2.34/build/libc_pic.a(strnlen.os) (__strnlen_avx2_rtm)
/teamspace/studios/this_studio/AI-Automated-Radiology-Report/glibc-2.34/build/libc_pic.a(memchr-evex.os)
                              /teamspace/studios/this_studio/AI-Automated-Radiology-Report/glibc-2.34/build/libc_pic.a(memchr.os) (__memchr_evex)
/teamspace/studios/this_studio/AI-Automated-Radiology-Report/glibc-2.34/build/libc_pic.a(memcmp-evex-movbe.os)
                              /teamspace/studios/this_studio/AI-Automated-Radiology-Report/glibc-2.34/build/libc_pic.a(memcmp.os) (__memcmp_evex_movbe)
/teamspace/studios/this_studio/AI-Automated-Radiology-Report/glibc-2.34/build/libc_pic.a(memmove-evex-unaligned-erms.os)
                              /teamspace/studios/this_studio/AI-Automated-Radiology-Report/glibc-2.34/build/libc_pic.a(mempcpy.os) (__mempcpy_evex_unaligned)
/teamspace/studios/this_studio/AI-Automated-Radiology-Report/glibc-2.34/build/libc_pic.a(memset-evex-unaligned-erms.os)
                              /teamspace/studios/this_studio/AI-Automated-Radiology-Report/glibc-2.34/build/libc_pic.a(memset.os) (__memset_evex_unaligned)
/teamspace/studios/this_studio/AI-Automated-Radiology-Report/glibc-2.34/build/libc_pic.a(rawmemchr-evex.os)
                              /teamspace/studios/this_studio/AI-Automated-Radiology-Report/glibc-2.34/build/libc_pic.a(rawmemchr.os) (__rawmemchr_evex)
/teamspace/studios/this_studio/AI-Automated-Radiology-Report/glibc-2.34/build/libc_pic.a(stpcpy-evex.os)
                              /teamspace/studios/this_studio/AI-Automated-Radiology-Report/glibc-2.34/build/libc_pic.a(stpcpy.os) (__stpcpy_evex)
/teamspace/studios/this_studio/AI-Automated-Radiology-Report/glibc-2.34/build/libc_pic.a(strchr-evex.os)
                              /teamspace/studios/this_studio/AI-Automated-Radiology-Report/glibc-2.34/build/libc_pic.a(strchr.os) (__strchr_evex)
/teamspace/studios/this_studio/AI-Automated-Radiology-Report/glibc-2.34/build/libc_pic.a(strcmp-evex.os)
                              /teamspace/studios/this_studio/AI-Automated-Radiology-Report/glibc-2.34/build/libc_pic.a(strcmp.os) (__strcmp_evex)
/teamspace/studios/this_studio/AI-Automated-Radiology-Report/glibc-2.34/build/libc_pic.a(strlen-evex.os)
                              /teamspace/studios/this_studio/AI-Automated-Radiology-Report/glibc-2.34/build/libc_pic.a(strlen.os) (__strlen_evex)
/teamspace/studios/this_studio/AI-Automated-Radiology-Report/glibc-2.34/build/libc_pic.a(strncmp-evex.os)
                              /teamspace/studios/this_studio/AI-Automated-Radiology-Report/glibc-2.34/build/libc_pic.a(strncmp.os) (__strncmp_evex)
/teamspace/studios/this_studio/AI-Automated-Radiology-Report/glibc-2.34/build/libc_pic.a(strnlen-evex.os)
                              /teamspace/studios/this_studio/AI-Automated-Radiology-Report/glibc-2.34/build/libc_pic.a(strnlen.os) (__strnlen_evex)
/teamspace/studios/this_studio/AI-Automated-Radiology-Report/glibc-2.34/build/libc_pic.a(memchr-evex-rtm.os)
                              /teamspace/studios/this_studio/AI-Automated-Radiology-Report/glibc-2.34/build/libc_pic.a(memchr.os) (__memchr_evex_rtm)
/teamspace/studios/this_studio/AI-Automated-Radiology-Report/glibc-2.34/build/libc_pic.a(rawmemchr-evex-rtm.os)
                              /teamspace/studios/this_studio/AI-Automated-Radiology-Report/glibc-2.34/build/libc_pic.a(rawmemchr.os) (__rawmemchr_evex_rtm)
/teamspace/studios/this_studio/AI-Automated-Radiology-Report/glibc-2.34/build/libc_pic.a(cacheinfo.os)
                              /teamspace/studios/this_studio/AI-Automated-Radiology-Report/glibc-2.34/build/libc_pic.a(memcpy-ssse3-back.os) (__x86_data_cache_size)
/teamspace/studios/this_studio/AI-Automated-Radiology-Report/glibc-2.34/build/libc_pic.a(closedir.os)
                              /teamspace/studios/this_studio/AI-Automated-Radiology-Report/glibc-2.34/build/elf/dl-allobjs.os (__closedir)
/teamspace/studios/this_studio/AI-Automated-Radiology-Report/glibc-2.34/build/libc_pic.a(rewinddir.os)
                              /teamspace/studios/this_studio/AI-Automated-Radiology-Report/glibc-2.34/build/elf/dl-allobjs.os (__rewinddir)
/teamspace/studios/this_studio/AI-Automated-Radiology-Report/glibc-2.34/build/libc_pic.a(readdir64.os)
                              /teamspace/studios/this_studio/AI-Automated-Radiology-Report/glibc-2.34/build/elf/dl-allobjs.os (__readdir64)
/teamspace/studios/this_studio/AI-Automated-Radiology-Report/glibc-2.34/build/libc_pic.a(fdopendir.os)
                              /teamspace/studios/this_studio/AI-Automated-Radiology-Report/glibc-2.34/build/elf/dl-allobjs.os (__fdopendir)
/teamspace/studios/this_studio/AI-Automated-Radiology-Report/glibc-2.34/build/libc_pic.a(uname.os)
                              /teamspace/studios/this_studio/AI-Automated-Radiology-Report/glibc-2.34/build/elf/dl-allobjs.os (__uname)
/teamspace/studios/this_studio/AI-Automated-Radiology-Report/glibc-2.34/build/libc_pic.a(_exit.os)
                              /teamspace/studios/this_studio/AI-Automated-Radiology-Report/glibc-2.34/build/elf/dl-allobjs.os (__GI__exit)
/teamspace/studios/this_studio/AI-Automated-Radiology-Report/glibc-2.34/build/libc_pic.a(getpid.os)
                              /teamspace/studios/this_studio/AI-Automated-Radiology-Report/glibc-2.34/build/elf/dl-allobjs.os (__getpid)
/teamspace/studios/this_studio/AI-Automated-Radiology-Report/glibc-2.34/build/libc_pic.a(environ.os)
                              /teamspace/studios/this_studio/AI-Automated-Radiology-Report/glibc-2.34/build/elf/dl-allobjs.os (__environ)
/teamspace/studios/this_studio/AI-Automated-Radiology-Report/glibc-2.34/build/libc_pic.a(stat64.os)
                              /teamspace/studios/this_studio/AI-Automated-Radiology-Report/glibc-2.34/build/elf/dl-allobjs.os (__GI___stat64)
/teamspace/studios/this_studio/AI-Automated-Radiology-Report/glibc-2.34/build/libc_pic.a(fstat64.os)
                              /teamspace/studios/this_studio/AI-Automated-Radiology-Report/glibc-2.34/build/elf/dl-allobjs.os (__GI___fstat64)
/teamspace/studios/this_studio/AI-Automated-Radiology-Report/glibc-2.34/build/libc_pic.a(lstat64.os)
                              /teamspace/studios/this_studio/AI-Automated-Radiology-Report/glibc-2.34/build/elf/dl-allobjs.os (__GI___lstat64)
/teamspace/studios/this_studio/AI-Automated-Radiology-Report/glibc-2.34/build/libc_pic.a(fstatat64.os)
                              /teamspace/studios/this_studio/AI-Automated-Radiology-Report/glibc-2.34/build/elf/dl-allobjs.os (__GI___fstatat64)
/teamspace/studios/this_studio/AI-Automated-Radiology-Report/glibc-2.34/build/libc_pic.a(openat64.os)
                              /teamspace/studios/this_studio/AI-Automated-Radiology-Report/glibc-2.34/build/elf/dl-allobjs.os (__openat64)
/teamspace/studios/this_studio/AI-Automated-Radiology-Report/glibc-2.34/build/libc_pic.a(lseek64.os)
                              /teamspace/studios/this_studio/AI-Automated-Radiology-Report/glibc-2.34/build/libc_pic.a(rewinddir.os) (__GI___lseek)
/teamspace/studios/this_studio/AI-Automated-Radiology-Report/glibc-2.34/build/libc_pic.a(access.os)
                              /teamspace/studios/this_studio/AI-Automated-Radiology-Report/glibc-2.34/build/elf/dl-allobjs.os (__access)
/teamspace/studios/this_studio/AI-Automated-Radiology-Report/glibc-2.34/build/libc_pic.a(close_nocancel.os)
                              /teamspace/studios/this_studio/AI-Automated-Radiology-Report/glibc-2.34/build/elf/dl-allobjs.os (__GI___close_nocancel)
/teamspace/studios/this_studio/AI-Automated-Radiology-Report/glibc-2.34/build/libc_pic.a(fcntl_nocancel.os)
                              /teamspace/studios/this_studio/AI-Automated-Radiology-Report/glibc-2.34/build/elf/dl-allobjs.os (__GI___fcntl64_nocancel)
/teamspace/studios/this_studio/AI-Automated-Radiology-Report/glibc-2.34/build/libc_pic.a(open64_nocancel.os)
                              /teamspace/studios/this_studio/AI-Automated-Radiology-Report/glibc-2.34/build/elf/dl-allobjs.os (__GI___open64_nocancel)
/teamspace/studios/this_studio/AI-Automated-Radiology-Report/glibc-2.34/build/libc_pic.a(read_nocancel.os)
                              /teamspace/studios/this_studio/AI-Automated-Radiology-Report/glibc-2.34/build/elf/dl-allobjs.os (__GI___read_nocancel)
/teamspace/studios/this_studio/AI-Automated-Radiology-Report/glibc-2.34/build/libc_pic.a(pread64_nocancel.os)
                              /teamspace/studios/this_studio/AI-Automated-Radiology-Report/glibc-2.34/build/elf/dl-allobjs.os (__GI___pread64_nocancel)
/teamspace/studios/this_studio/AI-Automated-Radiology-Report/glibc-2.34/build/libc_pic.a(write_nocancel.os)
                              /teamspace/studios/this_studio/AI-Automated-Radiology-Report/glibc-2.34/build/elf/dl-allobjs.os (__GI___write_nocancel)
/teamspace/studios/this_studio/AI-Automated-Radiology-Report/glibc-2.34/build/libc_pic.a(mmap64.os)
                              /teamspace/studios/this_studio/AI-Automated-Radiology-Report/glibc-2.34/build/elf/dl-allobjs.os (__mmap)
/teamspace/studios/this_studio/AI-Automated-Radiology-Report/glibc-2.34/build/libc_pic.a(munmap.os)
                              /teamspace/studios/this_studio/AI-Automated-Radiology-Report/glibc-2.34/build/elf/dl-allobjs.os (__munmap)
/teamspace/studios/this_studio/AI-Automated-Radiology-Report/glibc-2.34/build/libc_pic.a(mprotect.os)
                              /teamspace/studios/this_studio/AI-Automated-Radiology-Report/glibc-2.34/build/elf/dl-allobjs.os (__mprotect)
/teamspace/studios/this_studio/AI-Automated-Radiology-Report/glibc-2.34/build/libc_pic.a(profil.os)
                              /teamspace/studios/this_studio/AI-Automated-Radiology-Report/glibc-2.34/build/elf/dl-allobjs.os (__profil)
/teamspace/studios/this_studio/AI-Automated-Radiology-Report/glibc-2.34/build/libc_pic.a(prof-freq.os)
                              /teamspace/studios/this_studio/AI-Automated-Radiology-Report/glibc-2.34/build/libc_pic.a(profil.os) (__GI___profile_frequency)
/teamspace/studios/this_studio/AI-Automated-Radiology-Report/glibc-2.34/build/libc_pic.a(dl-addr-obj.os)
                              /teamspace/studios/this_studio/AI-Automated-Radiology-Report/glibc-2.34/build/elf/dl-allobjs.os (_dl_addr_inside_object)
/teamspace/studios/this_studio/AI-Automated-Radiology-Report/glibc-2.34/build/libc_pic.a(sigaction.os)
                              /teamspace/studios/this_studio/AI-Automated-Radiology-Report/glibc-2.34/build/libc_pic.a(profil.os) (__GI___sigaction)
/teamspace/studios/this_studio/AI-Automated-Radiology-Report/glibc-2.34/build/libc_pic.a(libc_sigaction.os)
                              /teamspace/studios/this_studio/AI-Automated-Radiology-Report/glibc-2.34/build/libc_pic.a(sigaction.os) (__GI___libc_sigaction)
/teamspace/studios/this_studio/AI-Automated-Radiology-Report/glibc-2.34/build/libc_pic.a(setitimer.os)
                              /teamspace/studios/this_studio/AI-Automated-Radiology-Report/glibc-2.34/build/libc_pic.a(profil.os) (__setitimer)
/teamspace/studios/this_studio/AI-Automated-Radiology-Report/glibc-2.34/build/libc_pic.a(getdents64.os)
                              /teamspace/studios/this_studio/AI-Automated-Radiology-Report/glibc-2.34/build/libc_pic.a(readdir64.os) (__GI___getdents64)

Merging program properties

Removed property 0xc0000002 to merge /teamspace/studios/this_studio/AI-Automated-Radiology-Report/glibc-2.34/build/elf/dl-allobjs.os (0x3) and /teamspace/studios/this_studio/AI-Automated-Radiology-Report/glibc-2.34/build/elf/librtld.mapT.o (not found)
Removed property 0xc0000002 to merge /teamspace/studios/this_studio/AI-Automated-Radiology-Report/glibc-2.34/build/elf/dl-allobjs.os (not found) and /teamspace/studios/this_studio/AI-Automated-Radiology-Report/glibc-2.34/build/libc_pic.a(check_fds.os) (0x3)
Removed property 0xc0000002 to merge /teamspace/studios/this_studio/AI-Automated-Radiology-Report/glibc-2.34/build/elf/dl-allobjs.os (not found) and /teamspace/studios/this_studio/AI-Automated-Radiology-Report/glibc-2.34/build/libc_pic.a(errno.os) (0x3)
Removed property 0xc0000002 to merge /teamspace/studios/this_studio/AI-Automated-Radiology-Report/glibc-2.34/build/elf/dl-allobjs.os (not found) and /teamspace/studios/this_studio/AI-Automated-Radiology-Report/glibc-2.34/build/libc_pic.a(setjmp.os) (0x3)
Removed property 0xc0000002 to merge /teamspace/studios/this_studio/AI-Automated-Radiology-Report/glibc-2.34/build/elf/dl-allobjs.os (not found) and /teamspace/studios/this_studio/AI-Automated-Radiology-Report/glibc-2.34/build/libc_pic.a(__longjmp.os) (0x3)
Removed property 0xc0000002 to merge /teamspace/studios/this_studio/AI-Automated-Radiology-Report/glibc-2.34/build/elf/dl-allobjs.os (not found) and /teamspace/studios/this_studio/AI-Automated-Radiology-Report/glibc-2.34/build/libc_pic.a(lowlevellock.os) (0x3)
Removed property 0xc0000002 to merge /teamspace/studios/this_studio/AI-Automated-Radiology-Report/glibc-2.34/build/elf/dl-allobjs.os (not found) and /teamspace/studios/this_studio/AI-Automated-Radiology-Report/glibc-2.34/build/libc_pic.a(scratch_buffer_set_array_size.os) (0x3)
Removed property 0xc0000002 to merge /teamspace/studios/this_studio/AI-Automated-Radiology-Report/glibc-2.34/build/elf/dl-allobjs.os (not found) and /teamspace/studios/this_studio/AI-Automated-Radiology-Report/glibc-2.34/build/libc_pic.a(strchr.os) (0x3)
Removed property 0xc0000002 to merge /teamspace/studios/this_studio/AI-Automated-Radiology-Report/glibc-2.34/build/elf/dl-allobjs.os (not found) and /teamspace/studios/this_studio/AI-Automated-Radiology-Report/glibc-2.34/build/libc_pic.a(strcmp.os) (0x3)
Removed property 0xc0000002 to merge /teamspace/studios/this_studio/AI-Automated-Radiology-Report/glibc-2.34/build/elf/dl-allobjs.os (not found) and /teamspace/studios/this_studio/AI-Automated-Radiology-Report/glibc-2.34/build/libc_pic.a(strcspn.os) (0x3)
Removed property 0xc0000002 to merge /teamspace/studios/this_studio/AI-Automated-Radiology-Report/glibc-2.34/build/elf/dl-allobjs.os (not found) and /teamspace/studios/this_studio/AI-Automated-Radiology-Report/glibc-2.34/build/libc_pic.a(strdup.os) (0x3)
Removed property 0xc0000002 to merge /teamspace/studios/this_studio/AI-Automated-Radiology-Report/glibc-2.34/build/elf/dl-allobjs.os (not found) and /teamspace/studios/this_studio/AI-Automated-Radiology-Report/glibc-2.34/build/libc_pic.a(strlen.os) (0x3)
Removed property 0xc0000002 to merge /teamspace/studios/this_studio/AI-Automated-Radiology-Report/glibc-2.34/build/elf/dl-allobjs.os (not found) and /teamspace/studios/this_studio/AI-Automated-Radiology-Report/glibc-2.34/build/libc_pic.a(strnlen.os) (0x3)
Removed property 0xc0000002 to merge /teamspace/studios/this_studio/AI-Automated-Radiology-Report/glibc-2.34/build/elf/dl-allobjs.os (not found) and /teamspace/studios/this_studio/AI-Automated-Radiology-Report/glibc-2.34/build/libc_pic.a(strncmp.os) (0x3)
Removed property 0xc0000002 to merge /teamspace/studios/this_studio/AI-Automated-Radiology-Report/glibc-2.34/build/elf/dl-allobjs.os (not found) and /teamspace/studios/this_studio/AI-Automated-Radiology-Report/glibc-2.34/build/libc_pic.a(memchr.os) (0x3)
Removed property 0xc0000002 to merge /teamspace/studios/this_studio/AI-Automated-Radiology-Report/glibc-2.34/build/elf/dl-allobjs.os (not found) and /teamspace/studios/this_studio/AI-Automated-Radiology-Report/glibc-2.34/build/libc_pic.a(memcmp.os) (0x3)
Removed property 0xc0000002 to merge /teamspace/studios/this_studio/AI-Automated-Radiology-Report/glibc-2.34/build/elf/dl-allobjs.os (not found) and /teamspace/studios/this_studio/AI-Automated-Radiology-Report/glibc-2.34/build/libc_pic.a(memmove.os) (0x3)
Removed property 0xc0000002 to merge /teamspace/studios/this_studio/AI-Automated-Radiology-Report/glibc-2.34/build/elf/dl-allobjs.os (not found) and /teamspace/studios/this_studio/AI-Automated-Radiology-Report/glibc-2.34/build/libc_pic.a(memset.os) (0x3)
Removed property 0xc0000002 to merge /teamspace/studios/this_studio/AI-Automated-Radiology-Report/glibc-2.34/build/elf/dl-allobjs.os (not found) and /teamspace/studios/this_studio/AI-Automated-Radiology-Report/glibc-2.34/build/libc_pic.a(mempcpy.os) (0x3)
Removed property 0xc0000002 to merge /teamspace/studios/this_studio/AI-Automated-Radiology-Report/glibc-2.34/build/elf/dl-allobjs.os (not found) and /teamspace/studios/this_studio/AI-Automated-Radiology-Report/glibc-2.34/build/libc_pic.a(stpcpy.os) (0x3)
Removed property 0xc0000002 to merge /teamspace/studios/this_studio/AI-Automated-Radiology-Report/glibc-2.34/build/elf/dl-allobjs.os (not found) and /teamspace/studios/this_studio/AI-Automated-Radiology-Report/glibc-2.34/build/libc_pic.a(memcpy.os) (0x3)
Removed property 0xc0000002 to merge /teamspace/studios/this_studio/AI-Automated-Radiology-Report/glibc-2.34/build/elf/dl-allobjs.os (not found) and /teamspace/studios/this_studio/AI-Automated-Radiology-Report/glibc-2.34/build/libc_pic.a(rawmemchr.os) (0x3)
Removed property 0xc0000002 to merge /teamspace/studios/this_studio/AI-Automated-Radiology-Report/glibc-2.34/build/elf/dl-allobjs.os (not found) and /teamspace/studios/this_studio/AI-Automated-Radiology-Report/glibc-2.34/build/libc_pic.a(strcmp-sse2.os) (0x3)
Removed property 0xc0000002 to merge /teamspace/studios/this_studio/AI-Automated-Radiology-Report/glibc-2.34/build/elf/dl-allobjs.os (not found) and /teamspace/studios/this_studio/AI-Automated-Radiology-Report/glibc-2.34/build/libc_pic.a(strcmp-sse2-unaligned.os) (0x3)
Removed property 0xc0000002 to merge /teamspace/studios/this_studio/AI-Automated-Radiology-Report/glibc-2.34/build/elf/dl-allobjs.os (not found) and /teamspace/studios/this_studio/AI-Automated-Radiology-Report/glibc-2.34/build/libc_pic.a(strcmp-ssse3.os) (0x3)
Removed property 0xc0000002 to merge /teamspace/studios/this_studio/AI-Automated-Radiology-Report/glibc-2.34/build/elf/dl-allobjs.os (not found) and /teamspace/studios/this_studio/AI-Automated-Radiology-Report/glibc-2.34/build/libc_pic.a(strcmp-avx2.os) (0x3)
Removed property 0xc0000002 to merge /teamspace/studios/this_studio/AI-Automated-Radiology-Report/glibc-2.34/build/elf/dl-allobjs.os (not found) and /teamspace/studios/this_studio/AI-Automated-Radiology-Report/glibc-2.34/build/libc_pic.a(strncmp-sse2.os) (0x3)
Removed property 0xc0000002 to merge /teamspace/studios/this_studio/AI-Automated-Radiology-Report/glibc-2.34/build/elf/dl-allobjs.os (not found) and /teamspace/studios/this_studio/AI-Automated-Radiology-Report/glibc-2.34/build/libc_pic.a(strncmp-ssse3.os) (0x3)
Removed property 0xc0000002 to merge /teamspace/studios/this_studio/AI-Automated-Radiology-Report/glibc-2.34/build/elf/dl-allobjs.os (not found) and /teamspace/studios/this_studio/AI-Automated-Radiology-Report/glibc-2.34/build/libc_pic.a(strncmp-sse4_2.os) (0x3)
Removed property 0xc0000002 to merge /teamspace/studios/this_studio/AI-Automated-Radiology-Report/glibc-2.34/build/elf/dl-allobjs.os (not found) and /teamspace/studios/this_studio/AI-Automated-Radiology-Report/glibc-2.34/build/libc_pic.a(strncmp-avx2.os) (0x3)
Removed property 0xc0000002 to merge /teamspace/studios/this_studio/AI-Automated-Radiology-Report/glibc-2.34/build/elf/dl-allobjs.os (not found) and /teamspace/studios/this_studio/AI-Automated-Radiology-Report/glibc-2.34/build/libc_pic.a(memchr-sse2.os) (0x3)
Removed property 0xc0000002 to merge /teamspace/studios/this_studio/AI-Automated-Radiology-Report/glibc-2.34/build/elf/dl-allobjs.os (not found) and /teamspace/studios/this_studio/AI-Automated-Radiology-Report/glibc-2.34/build/libc_pic.a(rawmemchr-sse2.os) (0x3)
Removed property 0xc0000002 to merge /teamspace/studios/this_studio/AI-Automated-Radiology-Report/glibc-2.34/build/elf/dl-allobjs.os (not found) and /teamspace/studios/this_studio/AI-Automated-Radiology-Report/glibc-2.34/build/libc_pic.a(memchr-avx2.os) (0x3)
Removed property 0xc0000002 to merge /teamspace/studios/this_studio/AI-Automated-Radiology-Report/glibc-2.34/build/elf/dl-allobjs.os (not found) and /teamspace/studios/this_studio/AI-Automated-Radiology-Report/glibc-2.34/build/libc_pic.a(rawmemchr-avx2.os) (0x3)
Removed property 0xc0000002 to merge /teamspace/studios/this_studio/AI-Automated-Radiology-Report/glibc-2.34/build/elf/dl-allobjs.os (not found) and /teamspace/studios/this_studio/AI-Automated-Radiology-Report/glibc-2.34/build/libc_pic.a(memcmp-sse2.os) (0x3)
Removed property 0xc0000002 to merge /teamspace/studios/this_studio/AI-Automated-Radiology-Report/glibc-2.34/build/elf/dl-allobjs.os (not found) and /teamspace/studios/this_studio/AI-Automated-Radiology-Report/glibc-2.34/build/libc_pic.a(memcmp-avx2-movbe.os) (0x3)
Removed property 0xc0000002 to merge /teamspace/studios/this_studio/AI-Automated-Radiology-Report/glibc-2.34/build/elf/dl-allobjs.os (not found) and /teamspace/studios/this_studio/AI-Automated-Radiology-Report/glibc-2.34/build/libc_pic.a(memcmp-sse4.os) (0x3)
Removed property 0xc0000002 to merge /teamspace/studios/this_studio/AI-Automated-Radiology-Report/glibc-2.34/build/elf/dl-allobjs.os (not found) and /teamspace/studios/this_studio/AI-Automated-Radiology-Report/glibc-2.34/build/libc_pic.a(memcpy-ssse3.os) (0x3)
Removed property 0xc0000002 to merge /teamspace/studios/this_studio/AI-Automated-Radiology-Report/glibc-2.34/build/elf/dl-allobjs.os (not found) and /teamspace/studios/this_studio/AI-Automated-Radiology-Report/glibc-2.34/build/libc_pic.a(memmove-ssse3.os) (0x3)
Removed property 0xc0000002 to merge /teamspace/studios/this_studio/AI-Automated-Radiology-Report/glibc-2.34/build/elf/dl-allobjs.os (not found) and /teamspace/studios/this_studio/AI-Automated-Radiology-Report/glibc-2.34/build/libc_pic.a(memcpy-ssse3-back.os) (0x3)
Removed property 0xc0000002 to merge /teamspace/studios/this_studio/AI-Automated-Radiology-Report/glibc-2.34/build/elf/dl-allobjs.os (not found) and /teamspace/studios/this_studio/AI-Automated-Radiology-Report/glibc-2.34/build/libc_pic.a(memmove-ssse3-back.os) (0x3)
Removed property 0xc0000002 to merge /teamspace/studios/this_studio/AI-Automated-Radiology-Report/glibc-2.34/build/elf/dl-allobjs.os (not found) and /teamspace/studios/this_studio/AI-Automated-Radiology-Report/glibc-2.34/build/libc_pic.a(memmove-avx512-no-vzeroupper.os) (0x3)
Removed property 0xc0000002 to merge /teamspace/studios/this_studio/AI-Automated-Radiology-Report/glibc-2.34/build/elf/dl-allobjs.os (not found) and /teamspace/studios/this_studio/AI-Automated-Radiology-Report/glibc-2.34/build/libc_pic.a(strchr-sse2.os) (0x3)
Removed property 0xc0000002 to merge /teamspace/studios/this_studio/AI-Automated-Radiology-Report/glibc-2.34/build/elf/dl-allobjs.os (not found) and /teamspace/studios/this_studio/AI-Automated-Radiology-Report/glibc-2.34/build/libc_pic.a(strchr-avx2.os) (0x3)
Removed property 0xc0000002 to merge /teamspace/studios/this_studio/AI-Automated-Radiology-Report/glibc-2.34/build/elf/dl-allobjs.os (not found) and /teamspace/studios/this_studio/AI-Automated-Radiology-Report/glibc-2.34/build/libc_pic.a(strlen-sse2.os) (0x3)
Removed property 0xc0000002 to merge /teamspace/studios/this_studio/AI-Automated-Radiology-Report/glibc-2.34/build/elf/dl-allobjs.os (not found) and /teamspace/studios/this_studio/AI-Automated-Radiology-Report/glibc-2.34/build/libc_pic.a(strnlen-sse2.os) (0x3)
Removed property 0xc0000002 to merge /teamspace/studios/this_studio/AI-Automated-Radiology-Report/glibc-2.34/build/elf/dl-allobjs.os (not found) and /teamspace/studios/this_studio/AI-Automated-Radiology-Report/glibc-2.34/build/libc_pic.a(strlen-avx2.os) (0x3)
Removed property 0xc0000002 to merge /teamspace/studios/this_studio/AI-Automated-Radiology-Report/glibc-2.34/build/elf/dl-allobjs.os (not found) and /teamspace/studios/this_studio/AI-Automated-Radiology-Report/glibc-2.34/build/libc_pic.a(strnlen-avx2.os) (0x3)
Removed property 0xc0000002 to merge /teamspace/studios/this_studio/AI-Automated-Radiology-Report/glibc-2.34/build/elf/dl-allobjs.os (not found) and /teamspace/studios/this_studio/AI-Automated-Radiology-Report/glibc-2.34/build/libc_pic.a(stpcpy-sse2.os) (0x3)
Removed property 0xc0000002 to merge /teamspace/studios/this_studio/AI-Automated-Radiology-Report/glibc-2.34/build/elf/dl-allobjs.os (not found) and /teamspace/studios/this_studio/AI-Automated-Radiology-Report/glibc-2.34/build/libc_pic.a(stpcpy-ssse3.os) (0x3)
Removed property 0xc0000002 to merge /teamspace/studios/this_studio/AI-Automated-Radiology-Report/glibc-2.34/build/elf/dl-allobjs.os (not found) and /teamspace/studios/this_studio/AI-Automated-Radiology-Report/glibc-2.34/build/libc_pic.a(stpcpy-sse2-unaligned.os) (0x3)
Removed property 0xc0000002 to merge /teamspace/studios/this_studio/AI-Automated-Radiology-Report/glibc-2.34/build/elf/dl-allobjs.os (not found) and /teamspace/studios/this_studio/AI-Automated-Radiology-Report/glibc-2.34/build/libc_pic.a(stpcpy-avx2.os) (0x3)
Removed property 0xc0000002 to merge /teamspace/studios/this_studio/AI-Automated-Radiology-Report/glibc-2.34/build/elf/dl-allobjs.os (not found) and /teamspace/studios/this_studio/AI-Automated-Radiology-Report/glibc-2.34/build/libc_pic.a(strchr-sse2-no-bsf.os) (0x3)
Removed property 0xc0000002 to merge /teamspace/studios/this_studio/AI-Automated-Radiology-Report/glibc-2.34/build/elf/dl-allobjs.os (not found) and /teamspace/studios/this_studio/AI-Automated-Radiology-Report/glibc-2.34/build/libc_pic.a(memcmp-ssse3.os) (0x3)
Removed property 0xc0000002 to merge /teamspace/studios/this_studio/AI-Automated-Radiology-Report/glibc-2.34/build/elf/dl-allobjs.os (not found) and /teamspace/studios/this_studio/AI-Automated-Radiology-Report/glibc-2.34/build/libc_pic.a(strcspn-sse2.os) (0x3)
Removed property 0xc0000002 to merge /teamspace/studios/this_studio/AI-Automated-Radiology-Report/glibc-2.34/build/elf/dl-allobjs.os (not found) and /teamspace/studios/this_studio/AI-Automated-Radiology-Report/glibc-2.34/build/libc_pic.a(strcspn-c.os) (0x3)
Removed property 0xc0000002 to merge /teamspace/studios/this_studio/AI-Automated-Radiology-Report/glibc-2.34/build/elf/dl-allobjs.os (not found) and /teamspace/studios/this_studio/AI-Automated-Radiology-Report/glibc-2.34/build/libc_pic.a(varshift.os) (0x3)
Removed property 0xc0000002 to merge /teamspace/studios/this_studio/AI-Automated-Radiology-Report/glibc-2.34/build/elf/dl-allobjs.os (not found) and /teamspace/studios/this_studio/AI-Automated-Radiology-Report/glibc-2.34/build/libc_pic.a(memset-avx512-no-vzeroupper.os) (0x3)
Removed property 0xc0000002 to merge /teamspace/studios/this_studio/AI-Automated-Radiology-Report/glibc-2.34/build/elf/dl-allobjs.os (not found) and /teamspace/studios/this_studio/AI-Automated-Radiology-Report/glibc-2.34/build/libc_pic.a(memmove-sse2-unaligned-erms.os) (0x3)
Removed property 0xc0000002 to merge /teamspace/studios/this_studio/AI-Automated-Radiology-Report/glibc-2.34/build/elf/dl-allobjs.os (not found) and /teamspace/studios/this_studio/AI-Automated-Radiology-Report/glibc-2.34/build/libc_pic.a(memmove-avx-unaligned-erms.os) (0x3)
Removed property 0xc0000002 to merge /teamspace/studios/this_studio/AI-Automated-Radiology-Report/glibc-2.34/build/elf/dl-allobjs.os (not found) and /teamspace/studios/this_studio/AI-Automated-Radiology-Report/glibc-2.34/build/libc_pic.a(memmove-avx512-unaligned-erms.os) (0x3)
Removed property 0xc0000002 to merge /teamspace/studios/this_studio/AI-Automated-Radiology-Report/glibc-2.34/build/elf/dl-allobjs.os (not found) and /teamspace/studios/this_studio/AI-Automated-Radiology-Report/glibc-2.34/build/libc_pic.a(memset-sse2-unaligned-erms.os) (0x3)
Removed property 0xc0000002 to merge /teamspace/studios/this_studio/AI-Automated-Radiology-Report/glibc-2.34/build/elf/dl-allobjs.os (not found) and /teamspace/studios/this_studio/AI-Automated-Radiology-Report/glibc-2.34/build/libc_pic.a(memset-avx2-unaligned-erms.os) (0x3)
Removed property 0xc0000002 to merge /teamspace/studios/this_studio/AI-Automated-Radiology-Report/glibc-2.34/build/elf/dl-allobjs.os (not found) and /teamspace/studios/this_studio/AI-Automated-Radiology-Report/glibc-2.34/build/libc_pic.a(memset-avx512-unaligned-erms.os) (0x3)
Removed property 0xc0000002 to merge /teamspace/studios/this_studio/AI-Automated-Radiology-Report/glibc-2.34/build/elf/dl-allobjs.os (not found) and /teamspace/studios/this_studio/AI-Automated-Radiology-Report/glibc-2.34/build/libc_pic.a(memchr-avx2-rtm.os) (0x3)
Removed property 0xc0000002 to merge /teamspace/studios/this_studio/AI-Automated-Radiology-Report/glibc-2.34/build/elf/dl-allobjs.os (not found) and /teamspace/studios/this_studio/AI-Automated-Radiology-Report/glibc-2.34/build/libc_pic.a(memcmp-avx2-movbe-rtm.os) (0x3)
Removed property 0xc0000002 to merge /teamspace/studios/this_studio/AI-Automated-Radiology-Report/glibc-2.34/build/elf/dl-allobjs.os (not found) and /teamspace/studios/this_studio/AI-Automated-Radiology-Report/glibc-2.34/build/libc_pic.a(memmove-avx-unaligned-erms-rtm.os) (0x3)
Removed property 0xc0000002 to merge /teamspace/studios/this_studio/AI-Automated-Radiology-Report/glibc-2.34/build/elf/dl-allobjs.os (not found) and /teamspace/studios/this_studio/AI-Automated-Radiology-Report/glibc-2.34/build/libc_pic.a(memset-avx2-unaligned-erms-rtm.os) (0x3)
Removed property 0xc0000002 to merge /teamspace/studios/this_studio/AI-Automated-Radiology-Report/glibc-2.34/build/elf/dl-allobjs.os (not found) and /teamspace/studios/this_studio/AI-Automated-Radiology-Report/glibc-2.34/build/libc_pic.a(rawmemchr-avx2-rtm.os) (0x3)
Removed property 0xc0000002 to merge /teamspace/studios/this_studio/AI-Automated-Radiology-Report/glibc-2.34/build/elf/dl-allobjs.os (not found) and /teamspace/studios/this_studio/AI-Automated-Radiology-Report/glibc-2.34/build/libc_pic.a(strchr-avx2-rtm.os) (0x3)
Removed property 0xc0000002 to merge /teamspace/studios/this_studio/AI-Automated-Radiology-Report/glibc-2.34/build/elf/dl-allobjs.os (not found) and /teamspace/studios/this_studio/AI-Automated-Radiology-Report/glibc-2.34/build/libc_pic.a(strcmp-avx2-rtm.os) (0x3)
Removed property 0xc0000002 to merge /teamspace/studios/this_studio/AI-Automated-Radiology-Report/glibc-2.34/build/elf/dl-allobjs.os (not found) and /teamspace/studios/this_studio/AI-Automated-Radiology-Report/glibc-2.34/build/libc_pic.a(stpcpy-avx2-rtm.os) (0x3)
Removed property 0xc0000002 to merge /teamspace/studios/this_studio/AI-Automated-Radiology-Report/glibc-2.34/build/elf/dl-allobjs.os (not found) and /teamspace/studios/this_studio/AI-Automated-Radiology-Report/glibc-2.34/build/libc_pic.a(strlen-avx2-rtm.os) (0x3)
Removed property 0xc0000002 to merge /teamspace/studios/this_studio/AI-Automated-Radiology-Report/glibc-2.34/build/elf/dl-allobjs.os (not found) and /teamspace/studios/this_studio/AI-Automated-Radiology-Report/glibc-2.34/build/libc_pic.a(strncmp-avx2-rtm.os) (0x3)
Removed property 0xc0000002 to merge /teamspace/studios/this_studio/AI-Automated-Radiology-Report/glibc-2.34/build/elf/dl-allobjs.os (not found) and /teamspace/studios/this_studio/AI-Automated-Radiology-Report/glibc-2.34/build/libc_pic.a(strnlen-avx2-rtm.os) (0x3)
Removed property 0xc0000002 to merge /teamspace/studios/this_studio/AI-Automated-Radiology-Report/glibc-2.34/build/elf/dl-allobjs.os (not found) and /teamspace/studios/this_studio/AI-Automated-Radiology-Report/glibc-2.34/build/libc_pic.a(memchr-evex.os) (0x3)
Removed property 0xc0000002 to merge /teamspace/studios/this_studio/AI-Automated-Radiology-Report/glibc-2.34/build/elf/dl-allobjs.os (not found) and /teamspace/studios/this_studio/AI-Automated-Radiology-Report/glibc-2.34/build/libc_pic.a(memcmp-evex-movbe.os) (0x3)
Removed property 0xc0000002 to merge /teamspace/studios/this_studio/AI-Automated-Radiology-Report/glibc-2.34/build/elf/dl-allobjs.os (not found) and /teamspace/studios/this_studio/AI-Automated-Radiology-Report/glibc-2.34/build/libc_pic.a(memmove-evex-unaligned-erms.os) (0x3)
Removed property 0xc0000002 to merge /teamspace/studios/this_studio/AI-Automated-Radiology-Report/glibc-2.34/build/elf/dl-allobjs.os (not found) and /teamspace/studios/this_studio/AI-Automated-Radiology-Report/glibc-2.34/build/libc_pic.a(memset-evex-unaligned-erms.os) (0x3)
Removed property 0xc0000002 to merge /teamspace/studios/this_studio/AI-Automated-Radiology-Report/glibc-2.34/build/elf/dl-allobjs.os (not found) and /teamspace/studios/this_studio/AI-Automated-Radiology-Report/glibc-2.34/build/libc_pic.a(rawmemchr-evex.os) (0x3)
Removed property 0xc0000002 to merge /teamspace/studios/this_studio/AI-Automated-Radiology-Report/glibc-2.34/build/elf/dl-allobjs.os (not found) and /teamspace/studios/this_studio/AI-Automated-Radiology-Report/glibc-2.34/build/libc_pic.a(stpcpy-evex.os) (0x3)
Removed property 0xc0000002 to merge /teamspace/studios/this_studio/AI-Automated-Radiology-Report/glibc-2.34/build/elf/dl-allobjs.os (not found) and /teamspace/studios/this_studio/AI-Automated-Radiology-Report/glibc-2.34/build/libc_pic.a(strchr-evex.os) (0x3)
Removed property 0xc0000002 to merge /teamspace/studios/this_studio/AI-Automated-Radiology-Report/glibc-2.34/build/elf/dl-allobjs.os (not found) and /teamspace/studios/this_studio/AI-Automated-Radiology-Report/glibc-2.34/build/libc_pic.a(strcmp-evex.os) (0x3)
Removed property 0xc0000002 to merge /teamspace/studios/this_studio/AI-Automated-Radiology-Report/glibc-2.34/build/elf/dl-allobjs.os (not found) and /teamspace/studios/this_studio/AI-Automated-Radiology-Report/glibc-2.34/build/libc_pic.a(strlen-evex.os) (0x3)
Removed property 0xc0000002 to merge /teamspace/studios/this_studio/AI-Automated-Radiology-Report/glibc-2.34/build/elf/dl-allobjs.os (not found) and /teamspace/studios/this_studio/AI-Automated-Radiology-Report/glibc-2.34/build/libc_pic.a(strncmp-evex.os) (0x3)
Removed property 0xc0000002 to merge /teamspace/studios/this_studio/AI-Automated-Radiology-Report/glibc-2.34/build/elf/dl-allobjs.os (not found) and /teamspace/studios/this_studio/AI-Automated-Radiology-Report/glibc-2.34/build/libc_pic.a(strnlen-evex.os) (0x3)
Removed property 0xc0000002 to merge /teamspace/studios/this_studio/AI-Automated-Radiology-Report/glibc-2.34/build/elf/dl-allobjs.os (not found) and /teamspace/studios/this_studio/AI-Automated-Radiology-Report/glibc-2.34/build/libc_pic.a(memchr-evex-rtm.os) (0x3)
Removed property 0xc0000002 to merge /teamspace/studios/this_studio/AI-Automated-Radiology-Report/glibc-2.34/build/elf/dl-allobjs.os (not found) and /teamspace/studios/this_studio/AI-Automated-Radiology-Report/glibc-2.34/build/libc_pic.a(rawmemchr-evex-rtm.os) (0x3)
Removed property 0xc0000002 to merge /teamspace/studios/this_studio/AI-Automated-Radiology-Report/glibc-2.34/build/elf/dl-allobjs.os (not found) and /teamspace/studios/this_studio/AI-Automated-Radiology-Report/glibc-2.34/build/libc_pic.a(cacheinfo.os) (0x3)
Removed property 0xc0000002 to merge /teamspace/studios/this_studio/AI-Automated-Radiology-Report/glibc-2.34/build/elf/dl-allobjs.os (not found) and /teamspace/studios/this_studio/AI-Automated-Radiology-Report/glibc-2.34/build/libc_pic.a(closedir.os) (0x3)
Removed property 0xc0000002 to merge /teamspace/studios/this_studio/AI-Automated-Radiology-Report/glibc-2.34/build/elf/dl-allobjs.os (not found) and /teamspace/studios/this_studio/AI-Automated-Radiology-Report/glibc-2.34/build/libc_pic.a(rewinddir.os) (0x3)
Removed property 0xc0000002 to merge /teamspace/studios/this_studio/AI-Automated-Radiology-Report/glibc-2.34/build/elf/dl-allobjs.os (not found) and /teamspace/studios/this_studio/AI-Automated-Radiology-Report/glibc-2.34/build/libc_pic.a(readdir64.os) (0x3)
Removed property 0xc0000002 to merge /teamspace/studios/this_studio/AI-Automated-Radiology-Report/glibc-2.34/build/elf/dl-allobjs.os (not found) and /teamspace/studios/this_studio/AI-Automated-Radiology-Report/glibc-2.34/build/libc_pic.a(fdopendir.os) (0x3)
Removed property 0xc0000002 to merge /teamspace/studios/this_studio/AI-Automated-Radiology-Report/glibc-2.34/build/elf/dl-allobjs.os (not found) and /teamspace/studios/this_studio/AI-Automated-Radiology-Report/glibc-2.34/build/libc_pic.a(uname.os) (0x3)
Removed property 0xc0000002 to merge /teamspace/studios/this_studio/AI-Automated-Radiology-Report/glibc-2.34/build/elf/dl-allobjs.os (not found) and /teamspace/studios/this_studio/AI-Automated-Radiology-Report/glibc-2.34/build/libc_pic.a(_exit.os) (0x3)
Removed property 0xc0000002 to merge /teamspace/studios/this_studio/AI-Automated-Radiology-Report/glibc-2.34/build/elf/dl-allobjs.os (not found) and /teamspace/studios/this_studio/AI-Automated-Radiology-Report/glibc-2.34/build/libc_pic.a(getpid.os) (0x3)
Removed property 0xc0000002 to merge /teamspace/studios/this_studio/AI-Automated-Radiology-Report/glibc-2.34/build/elf/dl-allobjs.os (not found) and /teamspace/studios/this_studio/AI-Automated-Radiology-Report/glibc-2.34/build/libc_pic.a(environ.os) (0x3)
Removed property 0xc0000002 to merge /teamspace/studios/this_studio/AI-Automated-Radiology-Report/glibc-2.34/build/elf/dl-allobjs.os (not found) and /teamspace/studios/this_studio/AI-Automated-Radiology-Report/glibc-2.34/build/libc_pic.a(stat64.os) (0x3)
Removed property 0xc0000002 to merge /teamspace/studios/this_studio/AI-Automated-Radiology-Report/glibc-2.34/build/elf/dl-allobjs.os (not found) and /teamspace/studios/this_studio/AI-Automated-Radiology-Report/glibc-2.34/build/libc_pic.a(fstat64.os) (0x3)
Removed property 0xc0000002 to merge /teamspace/studios/this_studio/AI-Automated-Radiology-Report/glibc-2.34/build/elf/dl-allobjs.os (not found) and /teamspace/studios/this_studio/AI-Automated-Radiology-Report/glibc-2.34/build/libc_pic.a(lstat64.os) (0x3)
Removed property 0xc0000002 to merge /teamspace/studios/this_studio/AI-Automated-Radiology-Report/glibc-2.34/build/elf/dl-allobjs.os (not found) and /teamspace/studios/this_studio/AI-Automated-Radiology-Report/glibc-2.34/build/libc_pic.a(fstatat64.os) (0x3)
Removed property 0xc0000002 to merge /teamspace/studios/this_studio/AI-Automated-Radiology-Report/glibc-2.34/build/elf/dl-allobjs.os (not found) and /teamspace/studios/this_studio/AI-Automated-Radiology-Report/glibc-2.34/build/libc_pic.a(openat64.os) (0x3)
Removed property 0xc0000002 to merge /teamspace/studios/this_studio/AI-Automated-Radiology-Report/glibc-2.34/build/elf/dl-allobjs.os (not found) and /teamspace/studios/this_studio/AI-Automated-Radiology-Report/glibc-2.34/build/libc_pic.a(lseek64.os) (0x3)
Removed property 0xc0000002 to merge /teamspace/studios/this_studio/AI-Automated-Radiology-Report/glibc-2.34/build/elf/dl-allobjs.os (not found) and /teamspace/studios/this_studio/AI-Automated-Radiology-Report/glibc-2.34/build/libc_pic.a(access.os) (0x3)
Removed property 0xc0000002 to merge /teamspace/studios/this_studio/AI-Automated-Radiology-Report/glibc-2.34/build/elf/dl-allobjs.os (not found) and /teamspace/studios/this_studio/AI-Automated-Radiology-Report/glibc-2.34/build/libc_pic.a(close_nocancel.os) (0x3)
Removed property 0xc0000002 to merge /teamspace/studios/this_studio/AI-Automated-Radiology-Report/glibc-2.34/build/elf/dl-allobjs.os (not found) and /teamspace/studios/this_studio/AI-Automated-Radiology-Report/glibc-2.34/build/libc_pic.a(fcntl_nocancel.os) (0x3)
Removed property 0xc0000002 to merge /teamspace/studios/this_studio/AI-Automated-Radiology-Report/glibc-2.34/build/elf/dl-allobjs.os (not found) and /teamspace/studios/this_studio/AI-Automated-Radiology-Report/glibc-2.34/build/libc_pic.a(open64_nocancel.os) (0x3)
Removed property 0xc0000002 to merge /teamspace/studios/this_studio/AI-Automated-Radiology-Report/glibc-2.34/build/elf/dl-allobjs.os (not found) and /teamspace/studios/this_studio/AI-Automated-Radiology-Report/glibc-2.34/build/libc_pic.a(read_nocancel.os) (0x3)
Removed property 0xc0000002 to merge /teamspace/studios/this_studio/AI-Automated-Radiology-Report/glibc-2.34/build/elf/dl-allobjs.os (not found) and /teamspace/studios/this_studio/AI-Automated-Radiology-Report/glibc-2.34/build/libc_pic.a(pread64_nocancel.os) (0x3)
Removed property 0xc0000002 to merge /teamspace/studios/this_studio/AI-Automated-Radiology-Report/glibc-2.34/build/elf/dl-allobjs.os (not found) and /teamspace/studios/this_studio/AI-Automated-Radiology-Report/glibc-2.34/build/libc_pic.a(write_nocancel.os) (0x3)
Removed property 0xc0000002 to merge /teamspace/studios/this_studio/AI-Automated-Radiology-Report/glibc-2.34/build/elf/dl-allobjs.os (not found) and /teamspace/studios/this_studio/AI-Automated-Radiology-Report/glibc-2.34/build/libc_pic.a(mmap64.os) (0x3)
Removed property 0xc0000002 to merge /teamspace/studios/this_studio/AI-Automated-Radiology-Report/glibc-2.34/build/elf/dl-allobjs.os (not found) and /teamspace/studios/this_studio/AI-Automated-Radiology-Report/glibc-2.34/build/libc_pic.a(munmap.os) (0x3)
Removed property 0xc0000002 to merge /teamspace/studios/this_studio/AI-Automated-Radiology-Report/glibc-2.34/build/elf/dl-allobjs.os (not found) and /teamspace/studios/this_studio/AI-Automated-Radiology-Report/glibc-2.34/build/libc_pic.a(mprotect.os) (0x3)
Removed property 0xc0000002 to merge /teamspace/studios/this_studio/AI-Automated-Radiology-Report/glibc-2.34/build/elf/dl-allobjs.os (not found) and /teamspace/studios/this_studio/AI-Automated-Radiology-Report/glibc-2.34/build/libc_pic.a(profil.os) (0x3)
Removed property 0xc0000002 to merge /teamspace/studios/this_studio/AI-Automated-Radiology-Report/glibc-2.34/build/elf/dl-allobjs.os (not found) and /teamspace/studios/this_studio/AI-Automated-Radiology-Report/glibc-2.34/build/libc_pic.a(prof-freq.os) (0x3)
Removed property 0xc0000002 to merge /teamspace/studios/this_studio/AI-Automated-Radiology-Report/glibc-2.34/build/elf/dl-allobjs.os (not found) and /teamspace/studios/this_studio/AI-Automated-Radiology-Report/glibc-2.34/build/libc_pic.a(dl-addr-obj.os) (0x3)
Removed property 0xc0000002 to merge /teamspace/studios/this_studio/AI-Automated-Radiology-Report/glibc-2.34/build/elf/dl-allobjs.os (not found) and /teamspace/studios/this_studio/AI-Automated-Radiology-Report/glibc-2.34/build/libc_pic.a(sigaction.os) (0x3)
Removed property 0xc0000002 to merge /teamspace/studios/this_studio/AI-Automated-Radiology-Report/glibc-2.34/build/elf/dl-allobjs.os (not found) and /teamspace/studios/this_studio/AI-Automated-Radiology-Report/glibc-2.34/build/libc_pic.a(libc_sigaction.os) (0x3)
Removed property 0xc0000002 to merge /teamspace/studios/this_studio/AI-Automated-Radiology-Report/glibc-2.34/build/elf/dl-allobjs.os (not found) and /teamspace/studios/this_studio/AI-Automated-Radiology-Report/glibc-2.34/build/libc_pic.a(setitimer.os) (0x3)
Removed property 0xc0000002 to merge /teamspace/studios/this_studio/AI-Automated-Radiology-Report/glibc-2.34/build/elf/dl-allobjs.os (not found) and /teamspace/studios/this_studio/AI-Automated-Radiology-Report/glibc-2.34/build/libc_pic.a(getdents64.os) (0x3)

Discarded input sections

 .note.gnu.property
                0x0000000000000000       0x20 /teamspace/studios/this_studio/AI-Automated-Radiology-Report/glibc-2.34/build/elf/dl-allobjs.os
 .note.gnu.property
                0x0000000000000000       0x20 /teamspace/studios/this_studio/AI-Automated-Radiology-Report/glibc-2.34/build/libc_pic.a(check_fds.os)
 .note.gnu.property
                0x0000000000000000       0x20 /teamspace/studios/this_studio/AI-Automated-Radiology-Report/glibc-2.34/build/libc_pic.a(errno.os)
 .note.gnu.property
                0x0000000000000000       0x20 /teamspace/studios/this_studio/AI-Automated-Radiology-Report/glibc-2.34/build/libc_pic.a(setjmp.os)
 .note.gnu.property
                0x0000000000000000       0x20 /teamspace/studios/this_studio/AI-Automated-Radiology-Report/glibc-2.34/build/libc_pic.a(__longjmp.os)
 .note.gnu.property
                0x0000000000000000       0x20 /teamspace/studios/this_studio/AI-Automated-Radiology-Report/glibc-2.34/build/libc_pic.a(lowlevellock.os)
 .note.gnu.property
                0x0000000000000000       0x20 /teamspace/studios/this_studio/AI-Automated-Radiology-Report/glibc-2.34/build/libc_pic.a(scratch_buffer_set_array_size.os)
 .note.gnu.property
                0x0000000000000000       0x20 /teamspace/studios/this_studio/AI-Automated-Radiology-Report/glibc-2.34/build/libc_pic.a(strchr.os)
 .note.gnu.property
                0x0000000000000000       0x20 /teamspace/studios/this_studio/AI-Automated-Radiology-Report/glibc-2.34/build/libc_pic.a(strcmp.os)
 .note.gnu.property
                0x0000000000000000       0x20 /teamspace/studios/this_studio/AI-Automated-Radiology-Report/glibc-2.34/build/libc_pic.a(strcspn.os)
 .note.gnu.property
                0x0000000000000000       0x20 /teamspace/studios/this_studio/AI-Automated-Radiology-Report/glibc-2.34/build/libc_pic.a(strdup.os)
 .note.gnu.property
                0x0000000000000000       0x20 /teamspace/studios/this_studio/AI-Automated-Radiology-Report/glibc-2.34/build/libc_pic.a(strlen.os)
 .note.gnu.property
                0x0000000000000000       0x20 /teamspace/studios/this_studio/AI-Automated-Radiology-Report/glibc-2.34/build/libc_pic.a(strnlen.os)
 .note.gnu.property
                0x0000000000000000       0x20 /teamspace/studios/this_studio/AI-Automated-Radiology-Report/glibc-2.34/build/libc_pic.a(strncmp.os)
 .note.gnu.property
                0x0000000000000000       0x20 /teamspace/studios/this_studio/AI-Automated-Radiology-Report/glibc-2.34/build/libc_pic.a(memchr.os)
 .note.gnu.property
                0x0000000000000000       0x20 /teamspace/studios/this_studio/AI-Automated-Radiology-Report/glibc-2.34/build/libc_pic.a(memcmp.os)
 .note.gnu.property
                0x0000000000000000       0x20 /teamspace/studios/this_studio/AI-Automated-Radiology-Report/glibc-2.34/build/libc_pic.a(memmove.os)
 .note.gnu.property
                0x0000000000000000       0x20 /teamspace/studios/this_studio/AI-Automated-Radiology-Report/glibc-2.34/build/libc_pic.a(memset.os)
 .note.gnu.property
                0x0000000000000000       0x20 /teamspace/studios/this_studio/AI-Automated-Radiology-Report/glibc-2.34/build/libc_pic.a(mempcpy.os)
 .note.gnu.property
                0x0000000000000000       0x20 /teamspace/studios/this_studio/AI-Automated-Radiology-Report/glibc-2.34/build/libc_pic.a(stpcpy.os)
 .note.gnu.property
                0x0000000000000000       0x20 /teamspace/studios/this_studio/AI-Automated-Radiology-Report/glibc-2.34/build/libc_pic.a(memcpy.os)
 .note.gnu.property
                0x0000000000000000       0x20 /teamspace/studios/this_studio/AI-Automated-Radiology-Report/glibc-2.34/build/libc_pic.a(rawmemchr.os)
 .note.gnu.property
                0x0000000000000000       0x20 /teamspace/studios/this_studio/AI-Automated-Radiology-Report/glibc-2.34/build/libc_pic.a(strcmp-sse2.os)
 .note.gnu.property
                0x0000000000000000       0x20 /teamspace/studios/this_studio/AI-Automated-Radiology-Report/glibc-2.34/build/libc_pic.a(strcmp-sse2-unaligned.os)
 .note.gnu.property
                0x0000000000000000       0x20 /teamspace/studios/this_studio/AI-Automated-Radiology-Report/glibc-2.34/build/libc_pic.a(strcmp-ssse3.os)
 .note.gnu.property
                0x0000000000000000       0x20 /teamspace/studios/this_studio/AI-Automated-Radiology-Report/glibc-2.34/build/libc_pic.a(strcmp-avx2.os)
 .note.gnu.property
                0x0000000000000000       0x20 /teamspace/studios/this_studio/AI-Automated-Radiology-Report/glibc-2.34/build/libc_pic.a(strncmp-sse2.os)
 .note.gnu.property
                0x0000000000000000       0x20 /teamspace/studios/this_studio/AI-Automated-Radiology-Report/glibc-2.34/build/libc_pic.a(strncmp-ssse3.os)
 .note.gnu.property
                0x0000000000000000       0x20 /teamspace/studios/this_studio/AI-Automated-Radiology-Report/glibc-2.34/build/libc_pic.a(strncmp-sse4_2.os)
 .note.gnu.property
                0x0000000000000000       0x20 /teamspace/studios/this_studio/AI-Automated-Radiology-Report/glibc-2.34/build/libc_pic.a(strncmp-avx2.os)
 .note.gnu.property
                0x0000000000000000       0x20 /teamspace/studios/this_studio/AI-Automated-Radiology-Report/glibc-2.34/build/libc_pic.a(memchr-sse2.os)
 .note.gnu.property
                0x0000000000000000       0x20 /teamspace/studios/this_studio/AI-Automated-Radiology-Report/glibc-2.34/build/libc_pic.a(rawmemchr-sse2.os)
 .note.gnu.property
                0x0000000000000000       0x20 /teamspace/studios/this_studio/AI-Automated-Radiology-Report/glibc-2.34/build/libc_pic.a(memchr-avx2.os)
 .note.gnu.property
                0x0000000000000000       0x20 /teamspace/studios/this_studio/AI-Automated-Radiology-Report/glibc-2.34/build/libc_pic.a(rawmemchr-avx2.os)
 .note.gnu.property
                0x0000000000000000       0x20 /teamspace/studios/this_studio/AI-Automated-Radiology-Report/glibc-2.34/build/libc_pic.a(memcmp-sse2.os)
 .note.gnu.property
                0x0000000000000000       0x20 /teamspace/studios/this_studio/AI-Automated-Radiology-Report/glibc-2.34/build/libc_pic.a(memcmp-avx2-movbe.os)
 .note.gnu.property
                0x0000000000000000       0x20 /teamspace/studios/this_studio/AI-Automated-Radiology-Report/glibc-2.34/build/libc_pic.a(memcmp-sse4.os)
 .note.gnu.property
                0x0000000000000000       0x20 /teamspace/studios/this_studio/AI-Automated-Radiology-Report/glibc-2.34/build/libc_pic.a(memcpy-ssse3.os)
 .note.gnu.property
                0x0000000000000000       0x20 /teamspace/studios/this_studio/AI-Automated-Radiology-Report/glibc-2.34/build/libc_pic.a(memmove-ssse3.os)
 .note.gnu.property
                0x0000000000000000       0x20 /teamspace/studios/this_studio/AI-Automated-Radiology-Report/glibc-2.34/build/libc_pic.a(memcpy-ssse3-back.os)
 .note.gnu.property
                0x0000000000000000       0x20 /teamspace/studios/this_studio/AI-Automated-Radiology-Report/glibc-2.34/build/libc_pic.a(memmove-ssse3-back.os)
 .note.gnu.property
                0x0000000000000000       0x20 /teamspace/studios/this_studio/AI-Automated-Radiology-Report/glibc-2.34/build/libc_pic.a(memmove-avx512-no-vzeroupper.os)
 .note.gnu.property
                0x0000000000000000       0x20 /teamspace/studios/this_studio/AI-Automated-Radiology-Report/glibc-2.34/build/libc_pic.a(strchr-sse2.os)
 .note.gnu.property
                0x0000000000000000       0x20 /teamspace/studios/this_studio/AI-Automated-Radiology-Report/glibc-2.34/build/libc_pic.a(strchr-avx2.os)
 .note.gnu.property
                0x0000000000000000       0x20 /teamspace/studios/this_studio/AI-Automated-Radiology-Report/glibc-2.34/build/libc_pic.a(strlen-sse2.os)
 .note.gnu.property
                0x0000000000000000       0x20 /teamspace/studios/this_studio/AI-Automated-Radiology-Report/glibc-2.34/build/libc_pic.a(strnlen-sse2.os)
 .note.gnu.property
                0x0000000000000000       0x20 /teamspace/studios/this_studio/AI-Automated-Radiology-Report/glibc-2.34/build/libc_pic.a(strlen-avx2.os)
 .note.gnu.property
                0x0000000000000000       0x20 /teamspace/studios/this_studio/AI-Automated-Radiology-Report/glibc-2.34/build/libc_pic.a(strnlen-avx2.os)
 .note.gnu.property
                0x0000000000000000       0x20 /teamspace/studios/this_studio/AI-Automated-Radiology-Report/glibc-2.34/build/libc_pic.a(stpcpy-sse2.os)
 .note.gnu.property
                0x0000000000000000       0x20 /teamspace/studios/this_studio/AI-Automated-Radiology-Report/glibc-2.34/build/libc_pic.a(stpcpy-ssse3.os)
 .note.gnu.property
                0x0000000000000000       0x20 /teamspace/studios/this_studio/AI-Automated-Radiology-Report/glibc-2.34/build/libc_pic.a(stpcpy-sse2-unaligned.os)
 .note.gnu.property
                0x0000000000000000       0x20 /teamspace/studios/this_studio/AI-Automated-Radiology-Report/glibc-2.34/build/libc_pic.a(stpcpy-avx2.os)
 .note.gnu.property
                0x0000000000000000       0x20 /teamspace/studios/this_studio/AI-Automated-Radiology-Report/glibc-2.34/build/libc_pic.a(strchr-sse2-no-bsf.os)
 .note.gnu.property
                0x0000000000000000       0x20 /teamspace/studios/this_studio/AI-Automated-Radiology-Report/glibc-2.34/build/libc_pic.a(memcmp-ssse3.os)
 .note.gnu.property
                0x0000000000000000       0x20 /teamspace/studios/this_studio/AI-Automated-Radiology-Report/glibc-2.34/build/libc_pic.a(strcspn-sse2.os)
 .note.gnu.property
                0x0000000000000000       0x20 /teamspace/studios/this_studio/AI-Automated-Radiology-Report/glibc-2.34/build/libc_pic.a(strcspn-c.os)
 .note.gnu.property
                0x0000000000000000       0x20 /teamspace/studios/this_studio/AI-Automated-Radiology-Report/glibc-2.34/build/libc_pic.a(varshift.os)
 .note.gnu.property
                0x0000000000000000       0x20 /teamspace/studios/this_studio/AI-Automated-Radiology-Report/glibc-2.34/build/libc_pic.a(memset-avx512-no-vzeroupper.os)
 .note.gnu.property
                0x0000000000000000       0x20 /teamspace/studios/this_studio/AI-Automated-Radiology-Report/glibc-2.34/build/libc_pic.a(memmove-sse2-unaligned-erms.os)
 .note.gnu.property
                0x0000000000000000       0x20 /teamspace/studios/this_studio/AI-Automated-Radiology-Report/glibc-2.34/build/libc_pic.a(memmove-avx-unaligned-erms.os)
 .note.gnu.property
                0x0000000000000000       0x20 /teamspace/studios/this_studio/AI-Automated-Radiology-Report/glibc-2.34/build/libc_pic.a(memmove-avx512-unaligned-erms.os)
 .note.gnu.property
                0x0000000000000000       0x20 /teamspace/studios/this_studio/AI-Automated-Radiology-Report/glibc-2.34/build/libc_pic.a(memset-sse2-unaligned-erms.os)
 .note.gnu.property
                0x0000000000000000       0x20 /teamspace/studios/this_studio/AI-Automated-Radiology-Report/glibc-2.34/build/libc_pic.a(memset-avx2-unaligned-erms.os)
 .note.gnu.property
                0x0000000000000000       0x20 /teamspace/studios/this_studio/AI-Automated-Radiology-Report/glibc-2.34/build/libc_pic.a(memset-avx512-unaligned-erms.os)
 .note.gnu.property
                0x0000000000000000       0x20 /teamspace/studios/this_studio/AI-Automated-Radiology-Report/glibc-2.34/build/libc_pic.a(memchr-avx2-rtm.os)
 .note.gnu.property
                0x0000000000000000       0x20 /teamspace/studios/this_studio/AI-Automated-Radiology-Report/glibc-2.34/build/libc_pic.a(memcmp-avx2-movbe-rtm.os)
 .note.gnu.property
                0x0000000000000000       0x20 /teamspace/studios/this_studio/AI-Automated-Radiology-Report/glibc-2.34/build/libc_pic.a(memmove-avx-unaligned-erms-rtm.os)
 .note.gnu.property
                0x0000000000000000       0x20 /teamspace/studios/this_studio/AI-Automated-Radiology-Report/glibc-2.34/build/libc_pic.a(memset-avx2-unaligned-erms-rtm.os)
 .note.gnu.property
                0x0000000000000000       0x20 /teamspace/studios/this_studio/AI-Automated-Radiology-Report/glibc-2.34/build/libc_pic.a(rawmemchr-avx2-rtm.os)
 .note.gnu.property
                0x0000000000000000       0x20 /teamspace/studios/this_studio/AI-Automated-Radiology-Report/glibc-2.34/build/libc_pic.a(strchr-avx2-rtm.os)
 .note.gnu.property
                0x0000000000000000       0x20 /teamspace/studios/this_studio/AI-Automated-Radiology-Report/glibc-2.34/build/libc_pic.a(strcmp-avx2-rtm.os)
 .note.gnu.property
                0x0000000000000000       0x20 /teamspace/studios/this_studio/AI-Automated-Radiology-Report/glibc-2.34/build/libc_pic.a(stpcpy-avx2-rtm.os)
 .note.gnu.property
                0x0000000000000000       0x20 /teamspace/studios/this_studio/AI-Automated-Radiology-Report/glibc-2.34/build/libc_pic.a(strlen-avx2-rtm.os)
 .note.gnu.property
                0x0000000000000000       0x20 /teamspace/studios/this_studio/AI-Automated-Radiology-Report/glibc-2.34/build/libc_pic.a(strncmp-avx2-rtm.os)
 .note.gnu.property
                0x0000000000000000       0x20 /teamspace/studios/this_studio/AI-Automated-Radiology-Report/glibc-2.34/build/libc_pic.a(strnlen-avx2-rtm.os)
 .note.gnu.property
                0x0000000000000000       0x20 /teamspace/studios/this_studio/AI-Automated-Radiology-Report/glibc-2.34/build/libc_pic.a(memchr-evex.os)
 .note.gnu.property
                0x0000000000000000       0x20 /teamspace/studios/this_studio/AI-Automated-Radiology-Report/glibc-2.34/build/libc_pic.a(memcmp-evex-movbe.os)
 .note.gnu.property
                0x0000000000000000       0x20 /teamspace/studios/this_studio/AI-Automated-Radiology-Report/glibc-2.34/build/libc_pic.a(memmove-evex-unaligned-erms.os)
 .note.gnu.property
                0x0000000000000000       0x20 /teamspace/studios/this_studio/AI-Automated-Radiology-Report/glibc-2.34/build/libc_pic.a(memset-evex-unaligned-erms.os)
 .note.gnu.property
                0x0000000000000000       0x20 /teamspace/studios/this_studio/AI-Automated-Radiology-Report/glibc-2.34/build/libc_pic.a(rawmemchr-evex.os)
 .note.gnu.property
                0x0000000000000000       0x20 /teamspace/studios/this_studio/AI-Automated-Radiology-Report/glibc-2.34/build/libc_pic.a(stpcpy-evex.os)
 .note.gnu.property
                0x0000000000000000       0x20 /teamspace/studios/this_studio/AI-Automated-Radiology-Report/glibc-2.34/build/libc_pic.a(strchr-evex.os)
 .note.gnu.property
                0x0000000000000000       0x20 /teamspace/studios/this_studio/AI-Automated-Radiology-Report/glibc-2.34/build/libc_pic.a(strcmp-evex.os)
 .note.gnu.property
                0x0000000000000000       0x20 /teamspace/studios/this_studio/AI-Automated-Radiology-Report/glibc-2.34/build/libc_pic.a(strlen-evex.os)
 .note.gnu.property
                0x0000000000000000       0x20 /teamspace/studios/this_studio/AI-Automated-Radiology-Report/glibc-2.34/build/libc_pic.a(strncmp-evex.os)
 .note.gnu.property
                0x0000000000000000       0x20 /teamspace/studios/this_studio/AI-Automated-Radiology-Report/glibc-2.34/build/libc_pic.a(strnlen-evex.os)
 .note.gnu.property
                0x0000000000000000       0x20 /teamspace/studios/this_studio/AI-Automated-Radiology-Report/glibc-2.34/build/libc_pic.a(memchr-evex-rtm.os)
 .note.gnu.property
                0x0000000000000000       0x20 /teamspace/studios/this_studio/AI-Automated-Radiology-Report/glibc-2.34/build/libc_pic.a(rawmemchr-evex-rtm.os)
 .note.gnu.property
                0x0000000000000000       0x20 /teamspace/studios/this_studio/AI-Automated-Radiology-Report/glibc-2.34/build/libc_pic.a(cacheinfo.os)
 .note.gnu.property
                0x0000000000000000       0x20 /teamspace/studios/this_studio/AI-Automated-Radiology-Report/glibc-2.34/build/libc_pic.a(closedir.os)
 .note.gnu.property
                0x0000000000000000       0x20 /teamspace/studios/this_studio/AI-Automated-Radiology-Report/glibc-2.34/build/libc_pic.a(rewinddir.os)
 .note.gnu.property
                0x0000000000000000       0x20 /teamspace/studios/this_studio/AI-Automated-Radiology-Report/glibc-2.34/build/libc_pic.a(readdir64.os)
 .note.gnu.property
                0x0000000000000000       0x20 /teamspace/studios/this_studio/AI-Automated-Radiology-Report/glibc-2.34/build/libc_pic.a(fdopendir.os)
 .note.gnu.property
                0x0000000000000000       0x20 /teamspace/studios/this_studio/AI-Automated-Radiology-Report/glibc-2.34/build/libc_pic.a(uname.os)
 .note.gnu.property
                0x0000000000000000       0x20 /teamspace/studios/this_studio/AI-Automated-Radiology-Report/glibc-2.34/build/libc_pic.a(_exit.os)
 .note.gnu.property
                0x0000000000000000       0x20 /teamspace/studios/this_studio/AI-Automated-Radiology-Report/glibc-2.34/build/libc_pic.a(getpid.os)
 .note.gnu.property
                0x0000000000000000       0x20 /teamspace/studios/this_studio/AI-Automated-Radiology-Report/glibc-2.34/build/libc_pic.a(environ.os)
 .note.gnu.property
                0x0000000000000000       0x20 /teamspace/studios/this_studio/AI-Automated-Radiology-Report/glibc-2.34/build/libc_pic.a(stat64.os)
 .note.gnu.property
                0x0000000000000000       0x20 /teamspace/studios/this_studio/AI-Automated-Radiology-Report/glibc-2.34/build/libc_pic.a(fstat64.os)
 .note.gnu.property
                0x0000000000000000       0x20 /teamspace/studios/this_studio/AI-Automated-Radiology-Report/glibc-2.34/build/libc_pic.a(lstat64.os)
 .note.gnu.property
                0x0000000000000000       0x20 /teamspace/studios/this_studio/AI-Automated-Radiology-Report/glibc-2.34/build/libc_pic.a(fstatat64.os)
 .note.gnu.property
                0x0000000000000000       0x20 /teamspace/studios/this_studio/AI-Automated-Radiology-Report/glibc-2.34/build/libc_pic.a(openat64.os)
 .note.gnu.property
                0x0000000000000000       0x20 /teamspace/studios/this_studio/AI-Automated-Radiology-Report/glibc-2.34/build/libc_pic.a(lseek64.os)
 .note.gnu.property
                0x0000000000000000       0x20 /teamspace/studios/this_studio/AI-Automated-Radiology-Report/glibc-2.34/build/libc_pic.a(access.os)
 .note.gnu.property
                0x0000000000000000       0x20 /teamspace/studios/this_studio/AI-Automated-Radiology-Report/glibc-2.34/build/libc_pic.a(close_nocancel.os)
 .note.gnu.property
                0x0000000000000000       0x20 /teamspace/studios/this_studio/AI-Automated-Radiology-Report/glibc-2.34/build/libc_pic.a(fcntl_nocancel.os)
 .note.gnu.property
                0x0000000000000000       0x20 /teamspace/studios/this_studio/AI-Automated-Radiology-Report/glibc-2.34/build/libc_pic.a(open64_nocancel.os)
 .note.gnu.property
                0x0000000000000000       0x20 /teamspace/studios/this_studio/AI-Automated-Radiology-Report/glibc-2.34/build/libc_pic.a(read_nocancel.os)
 .note.gnu.property
                0x0000000000000000       0x20 /teamspace/studios/this_studio/AI-Automated-Radiology-Report/glibc-2.34/build/libc_pic.a(pread64_nocancel.os)
 .note.gnu.property
                0x0000000000000000       0x20 /teamspace/studios/this_studio/AI-Automated-Radiology-Report/glibc-2.34/build/libc_pic.a(write_nocancel.os)
 .note.gnu.property
                0x0000000000000000       0x20 /teamspace/studios/this_studio/AI-Automated-Radiology-Report/glibc-2.34/build/libc_pic.a(mmap64.os)
 .note.gnu.property
                0x0000000000000000       0x20 /teamspace/studios/this_studio/AI-Automated-Radiology-Report/glibc-2.34/build/libc_pic.a(munmap.os)
 .note.gnu.property
                0x0000000000000000       0x20 /teamspace/studios/this_studio/AI-Automated-Radiology-Report/glibc-2.34/build/libc_pic.a(mprotect.os)
 .note.gnu.property
                0x0000000000000000       0x20 /teamspace/studios/this_studio/AI-Automated-Radiology-Report/glibc-2.34/build/libc_pic.a(profil.os)
 .note.gnu.property
                0x0000000000000000       0x20 /teamspace/studios/this_studio/AI-Automated-Radiology-Report/glibc-2.34/build/libc_pic.a(prof-freq.os)
 .note.gnu.property
                0x0000000000000000       0x20 /teamspace/studios/this_studio/AI-Automated-Radiology-Report/glibc-2.34/build/libc_pic.a(dl-addr-obj.os)
 .note.gnu.property
                0x0000000000000000       0x20 /teamspace/studios/this_studio/AI-Automated-Radiology-Report/glibc-2.34/build/libc_pic.a(sigaction.os)
 .note.gnu.property
                0x0000000000000000       0x20 /teamspace/studios/this_studio/AI-Automated-Radiology-Report/glibc-2.34/build/libc_pic.a(libc_sigaction.os)
 .note.gnu.property
                0x0000000000000000       0x20 /teamspace/studios/this_studio/AI-Automated-Radiology-Report/glibc-2.34/build/libc_pic.a(setitimer.os)
 .note.gnu.property
                0x0000000000000000       0x20 /teamspace/studios/this_studio/AI-Automated-Radiology-Report/glibc-2.34/build/libc_pic.a(getdents64.os)

Memory Configuration

Name             Origin             Length             Attributes
*default*        0x0000000000000000 0xffffffffffffffff

Linker script and memory map

LOAD /teamspace/studios/this_studio/AI-Automated-Radiology-Report/glibc-2.34/build/elf/librtld.mapT.o
START GROUP
LOAD /teamspace/studios/this_studio/AI-Automated-Radiology-Report/glibc-2.34/build/elf/dl-allobjs.os
LOAD /teamspace/studios/this_studio/AI-Automated-Radiology-Report/glibc-2.34/build/libc_pic.a
LOAD /usr/lib/gcc/x86_64-linux-gnu/9/libgcc.a
END GROUP

.interp
 *(.interp)

.note.gnu.build-id
 *(.note.gnu.build-id)

.hash
 *(.hash)

.gnu.hash
 *(.gnu.hash)

.dynsym
 *(.dynsym)

.dynstr
 *(.dynstr)

.gnu.version
 *(.gnu.version)

.gnu.version_d
 *(.gnu.version_d)

.gnu.version_r
 *(.gnu.version_r)

.rela.init
 *(.rela.init)

.rela.text
 *(.rela.text)

.rela.fini
 *(.rela.fini)

.rela.rodata
 *(.rela.rodata)

.rela.data.rel.ro
 *(.rela.data.rel.ro)

.rela.data
 *(.rela.data)

.rela.tdata
 *(.rela.tdata)

.rela.tbss
 *(.rela.tbss)

.rela.ctors
 *(.rela.ctors)

.rela.dtors
 *(.rela.dtors)

.rela.got
 *(.rela.got)

.rela.bss
 *(.rela.bss)

.rela.ldata
 *(.rela.ldata)

.rela.lbss
 *(.rela.lbss)

.rela.lrodata
 *(.rela.lrodata)

.rela.ifunc
 *(.rela.ifunc)

.rela.plt
 *(.rela.plt)

.init
 *(SORT_NONE(.init))

.plt
 *(.plt)

.plt.got
 *(.plt.got)

.plt.sec
 *(.plt.sec)

.text           0x0000000000000000    0x2679c
 *(.text .stub)
 .text          0x0000000000000000        0x0 /teamspace/studios/this_studio/AI-Automated-Radiology-Report/glibc-2.34/build/elf/librtld.mapT.o
                0x0000000000000000                __stack_chk_fail_local
                0x0000000000000000                malloc
                0x0000000000000000                __stack_chk_fail
                0x0000000000000000                calloc
                0x0000000000000000                __GI___pthread_enable_asynccancel
                0x0000000000000000                realloc
                0x0000000000000000                __GI___pthread_disable_asynccancel
                0x0000000000000000                __pthread_enable_asynccancel
                0x0000000000000000                __pthread_disable_asynccancel
                0x0000000000000000                free
 .text          0x0000000000000000    0x1fbf4 /teamspace/studios/this_studio/AI-Automated-Radiology-Report/glibc-2.34/build/elf/dl-allobjs.os
                0x0000000000000000                _start
                0x0000000000000008                _dl_start_user
                0x00000000000013e0                handle_preload_list
                0x0000000000006550                _dl_dst_count
                0x0000000000006600                _dl_dst_substitute
                0x0000000000006d40                _dl_init_paths
                0x00000000000070b0                _dl_process_pt_gnu_property
                0x00000000000087e0                _dl_map_object
                0x0000000000009280                _dl_rtld_di_serinfo
                0x000000000000a1f0                _dl_lookup_symbol_x
                0x000000000000b170                _dl_setup_hash
                0x000000000000b230                _dl_add_to_namespace_list
                0x000000000000b2d0                _dl_new_object
                0x000000000000b6e0                _dl_try_allocate_static_tls
                0x000000000000b810                _dl_allocate_static_tls
                0x000000000000b850                _dl_protect_relro
                0x000000000000b8c0                _dl_reloc_bad_type
                0x000000000000b990                _dl_relocate_object
                0x000000000000d6d0                _dl_map_object_deps
                0x000000000000e8d0                _dl_fixup
                0x000000000000ea80                _dl_profile_fixup
                0x000000000000f150                _dl_call_pltexit
                0x000000000000f400                _dl_init
                0x000000000000f530                _dl_fini
                0x000000000000f970                _dl_debug_state
                0x000000000000f970                __GI__dl_debug_state
                0x000000000000f980                _dl_debug_initialize
                0x0000000000010160                _dl_sysdep_read_whole_file
                0x00000000000101f0                _dl_debug_printf
                0x00000000000102a0                _dl_debug_printf_c
                0x0000000000010350                _dl_dprintf
                0x00000000000103f0                _dl_printf
                0x00000000000104a0                _dl_error_printf
                0x0000000000010550                _dl_fatal_printf
                0x0000000000010550                __GI__dl_fatal_printf
                0x0000000000010600                _dl_name_match_p
                0x0000000000010670                _dl_higher_prime_number
                0x00000000000106c0                _dl_strtoul
                0x0000000000010820                _dl_check_map_versions
                0x0000000000010f80                _dl_check_all_versions
                0x0000000000011000                _dl_start_profile
                0x0000000000011800                __GI__dl_mcount
                0x0000000000011800                _dl_mcount
                0x0000000000011d50                _dl_tls_static_surplus_init
                0x0000000000011de0                _dl_assign_tls_modid
                0x0000000000011ef0                _dl_count_modids
                0x0000000000011f60                _dl_determine_tlsoffset
                0x0000000000012110                _dl_get_tls_static_info
                0x0000000000012130                _dl_allocate_tls_storage
                0x0000000000012200                __GI__dl_allocate_tls_init
                0x0000000000012200                _dl_allocate_tls_init
                0x0000000000012450                __GI__dl_allocate_tls
                0x0000000000012450                _dl_allocate_tls
                0x0000000000012490                _dl_deallocate_tls
                0x0000000000012490                __GI__dl_deallocate_tls
                0x0000000000012520                _dl_update_slotinfo
                0x0000000000012780                __GI___tls_get_addr
                0x0000000000012780                ___tls_get_addr
                0x00000000000127d0                _dl_tls_get_addr_soft
                0x0000000000012850                _dl_add_to_slotinfo
                0x0000000000012970                _dl_init_static_tls
                0x0000000000012aa0                __tls_get_addr_slow
                0x0000000000012ad0                _dl_get_origin
                0x0000000000012c40                _dl_scope_free
                0x0000000000012d40                __GI___nptl_change_stack_perm
                0x0000000000012d40                __nptl_change_stack_perm
                0x0000000000012d80                _dl_make_stacks_executable
                0x00000000000131c0                __GI__dl_find_dso_for_object
                0x00000000000131c0                _dl_find_dso_for_object
                0x0000000000013290                _dl_open
                0x00000000000135c0                _dl_show_scope
                0x00000000000143d0                _dl_close_worker
                0x0000000000015570                _dl_close
                0x00000000000155e0                _dl_runtime_profile_avx512
                0x0000000000015a60                _dl_runtime_profile_avx
                0x0000000000015ee0                _dl_runtime_profile_sse
                0x00000000000160e0                _dl_runtime_resolve_fxsave
                0x0000000000016160                _dl_runtime_resolve_xsave
                0x0000000000016230                _dl_runtime_resolve_xsavec
                0x0000000000016310                _dl_error_free
                0x0000000000016340                _dl_exception_create
                0x0000000000016340                __GI__dl_exception_create
                0x0000000000016440                __GI__dl_exception_create_format
                0x0000000000016440                _dl_exception_create_format
                0x00000000000168a0                _dl_exception_free
                0x00000000000168a0                __GI__dl_exception_free
                0x00000000000168d0                _dl_sort_maps
                0x0000000000016ca0                _dl_lookup_direct
                0x0000000000016e70                _dl_call_libc_early_init
                0x0000000000016f00                _dl_write
                0x0000000000016f10                __thread_gscope_wait
                0x0000000000017100                __tls_pre_init_tp
                0x0000000000017160                __tls_init_tp
                0x0000000000017230                _dl_cache_libcmp
                0x00000000000179e0                _dl_load_cache_lookup
                0x0000000000017d70                _dl_unload_cache
                0x0000000000017ee0                __GI___tunable_set_val
                0x0000000000017f10                __GI___tunables_init
                0x0000000000018480                __GI___tunables_print
                0x0000000000018570                __tunable_get_val
                0x0000000000018570                __GI___tunable_get_val
                0x00000000000185e0                _dl_make_tlsdesc_dynamic
                0x0000000000018890                _dl_unmap
                0x0000000000018910                _dl_tlsdesc_return
                0x0000000000018920                _dl_tlsdesc_undefweak
                0x0000000000018940                _dl_tlsdesc_dynamic
                0x00000000000189e0                __tls_get_addr
                0x000000000001aa30                __x86_cpu_features
                0x000000000001aa60                _dl_x86_init_cpu_features
                0x000000000001aa80                _dl_x86_get_cpu_features
                0x000000000001aee0                _dl_cet_open_check
                0x000000000001aef0                _dl_cet_check
                0x000000000001af00                _dl_tunable_set_hwcaps
                0x000000000001ba10                _dl_tunable_set_x86_ibt
                0x000000000001ba90                _dl_tunable_set_x86_shstk
                0x000000000001bb10                _dl_sysdep_start
                0x000000000001bfa0                _dl_sysdep_start_cleanup
                0x000000000001bfb0                _dl_show_auxv
                0x000000000001c150                _dl_discover_osversion
                0x000000000001c330                _dl_next_ld_env_entry
                0x000000000001c380                unsetenv
                0x000000000001c5b0                __rtld_malloc_init_stubs
                0x000000000001c5f0                __sigjmp_save
                0x000000000001c600                __strerror_r
                0x000000000001c6f0                __GI___libc_fatal
                0x000000000001c6f0                __libc_fatal
                0x000000000001c710                __GI___chk_fail
                0x000000000001c710                __chk_fail
                0x000000000001c730                __GI___assert_fail
                0x000000000001c730                __assert_fail
                0x000000000001c800                __rtld_malloc_is_complete
                0x000000000001ca60                __rtld_malloc_init_real
                0x000000000001cb60                __GI___assert_perror_fail
                0x000000000001cb60                __assert_perror_fail
                0x000000000001cbc0                _itoa
                0x000000000001cc20                __strsep
                0x000000000001cc20                strsep
                0x000000000001cc20                __strsep_g
                0x000000000001cd50                _dl_signal_exception
                0x000000000001cda0                _dl_signal_error
                0x000000000001ce00                _dl_signal_cexception
                0x000000000001ce90                _dl_signal_cerror
                0x000000000001cf20                _dl_catch_exception
                0x000000000001d010                _dl_catch_error
                0x000000000001d060                _dl_receive_error
                0x000000000001d0b0                _rtld_catch_error
                0x000000000001d0c0                _dl_resolve_conflicts
                0x000000000001d320                _dl_important_hwcaps
                0x000000000001dca0                _dl_hwcaps_split
                0x000000000001dcd0                _dl_hwcaps_contains
                0x000000000001dd70                _dl_hwcaps_split_masked
                0x000000000001ddd0                _dl_hwcaps_subdirs_active
                0x000000000001df90                _dl_usage
                0x000000000001dfe0                _dl_version
                0x000000000001e000                _dl_help
                0x000000000001e550                _dl_diagnostics_print_string
                0x000000000001e5e0                _dl_diagnostics_print_labeled_string
                0x000000000001e630                _dl_diagnostics_print_labeled_value
                0x000000000001e650                _dl_print_diagnostics
                0x000000000001eaf0                _dl_diagnostics_kernel
                0x000000000001eb90                _dl_diagnostics_cpu
                0x000000000001f210                __rtld_mutex_init
                0x000000000001f300                __brk
                0x000000000001f300                brk
                0x000000000001f330                sbrk
                0x000000000001f330                __sbrk
                0x000000000001f3d0                __getcwd
                0x000000000001f3d0                getcwd
                0x000000000001fa00                openat64
                0x000000000001fa60                __alloc_dir
                0x000000000001fb50                __opendir
                0x000000000001fb50                opendir
 *fill*         0x000000000001fbf4        0xc 
 .text          0x000000000001fc00       0xd6 /teamspace/studios/this_studio/AI-Automated-Radiology-Report/glibc-2.34/build/libc_pic.a(check_fds.os)
                0x000000000001fca0                __libc_check_standard_fds
 .text          0x000000000001fcd6        0x0 /teamspace/studios/this_studio/AI-Automated-Radiology-Report/glibc-2.34/build/libc_pic.a(errno.os)
 *fill*         0x000000000001fcd6        0xa 
 .text          0x000000000001fce0       0x72 /teamspace/studios/this_studio/AI-Automated-Radiology-Report/glibc-2.34/build/libc_pic.a(setjmp.os)
                0x000000000001fce0                __sigsetjmp
                0x000000000001fce0                __GI___sigsetjmp
 *fill*         0x000000000001fd52        0xe 
 .text          0x000000000001fd60       0x8e /teamspace/studios/this_studio/AI-Automated-Radiology-Report/glibc-2.34/build/libc_pic.a(__longjmp.os)
                0x000000000001fd60                __longjmp
 *fill*         0x000000000001fdee        0x2 
 .text          0x000000000001fdf0      0x118 /teamspace/studios/this_studio/AI-Automated-Radiology-Report/glibc-2.34/build/libc_pic.a(lowlevellock.os)
                0x000000000001fdf0                __GI___lll_lock_wait_private
                0x000000000001fdf0                __lll_lock_wait_private
                0x000000000001fe60                __lll_lock_wait
                0x000000000001fe60                __GI___lll_lock_wait
                0x000000000001fed0                __lll_lock_wake_private
                0x000000000001fed0                __GI___lll_lock_wake_private
                0x000000000001fef0                __lll_lock_wake
                0x000000000001fef0                __GI___lll_lock_wake
 *fill*         0x000000000001ff08        0x8 
 .text          0x000000000001ff10       0xae /teamspace/studios/this_studio/AI-Automated-Radiology-Report/glibc-2.34/build/libc_pic.a(scratch_buffer_set_array_size.os)
                0x000000000001ff10                __libc_scratch_buffer_set_array_size
                0x000000000001ff10                __GI___libc_scratch_buffer_set_array_size
 *fill*         0x000000000001ffbe        0x2 
 .text          0x000000000001ffc0       0x78 /teamspace/studios/this_studio/AI-Automated-Radiology-Report/glibc-2.34/build/libc_pic.a(strchr.os)
                0x000000000001ffc0                __GI_strchr
                0x000000000001ffc0                index
                0x000000000001ffc0                strchr
 *fill*         0x0000000000020038        0x8 
 .text          0x0000000000020040       0x8f /teamspace/studios/this_studio/AI-Automated-Radiology-Report/glibc-2.34/build/libc_pic.a(strcmp.os)
                0x0000000000020040                __GI_strcmp
                0x0000000000020040                strcmp
 *fill*         0x00000000000200cf        0x1 
 .text          0x00000000000200d0       0x25 /teamspace/studios/this_studio/AI-Automated-Radiology-Report/glibc-2.34/build/libc_pic.a(strcspn.os)
                0x00000000000200d0                strcspn
                0x00000000000200d0                __GI_strcspn
 *fill*         0x00000000000200f5        0xb 
 .text          0x0000000000020100       0x40 /teamspace/studios/this_studio/AI-Automated-Radiology-Report/glibc-2.34/build/libc_pic.a(strdup.os)
                0x0000000000020100                __GI___strdup
                0x0000000000020100                __strdup
                0x0000000000020100                strdup
 .text          0x0000000000020140       0x78 /teamspace/studios/this_studio/AI-Automated-Radiology-Report/glibc-2.34/build/libc_pic.a(strlen.os)
                0x0000000000020140                strlen
                0x0000000000020140                __GI_strlen
 *fill*         0x00000000000201b8        0x8 
 .text          0x00000000000201c0       0x78 /teamspace/studios/this_studio/AI-Automated-Radiology-Report/glibc-2.34/build/libc_pic.a(strnlen.os)
                0x00000000000201c0                __strnlen
                0x00000000000201c0                strnlen
                0x00000000000201c0                __GI___strnlen
                0x00000000000201c0                __GI_strnlen
 *fill*         0x0000000000020238        0x8 
 .text          0x0000000000020240       0x9f /teamspace/studios/this_studio/AI-Automated-Radiology-Report/glibc-2.34/build/libc_pic.a(strncmp.os)
                0x0000000000020240                __GI_strncmp
                0x0000000000020240                strncmp
 *fill*         0x00000000000202df        0x1 
 .text          0x00000000000202e0       0x8d /teamspace/studios/this_studio/AI-Automated-Radiology-Report/glibc-2.34/build/libc_pic.a(memchr.os)
                0x00000000000202e0                __GI_memchr
                0x00000000000202e0                memchr
                0x00000000000202e0                __memchr
 *fill*         0x000000000002036d        0x3 
 .text          0x0000000000020370       0x99 /teamspace/studios/this_studio/AI-Automated-Radiology-Report/glibc-2.34/build/libc_pic.a(memcmp.os)
                0x0000000000020370                bcmp
                0x0000000000020370                __GI_memcmp
                0x0000000000020370                memcmp
 *fill*         0x0000000000020409        0x7 
 .text          0x0000000000020410      0x121 /teamspace/studios/this_studio/AI-Automated-Radiology-Report/glibc-2.34/build/libc_pic.a(memmove.os)
                0x0000000000020410                memmove
                0x0000000000020410                __GI_memmove
                0x0000000000020410                __libc_memmove
 *fill*         0x0000000000020531        0xf 
 .text          0x0000000000020540       0xf1 /teamspace/studios/this_studio/AI-Automated-Radiology-Report/glibc-2.34/build/libc_pic.a(memset.os)
                0x0000000000020540                __GI_memset
                0x0000000000020540                memset
 *fill*         0x0000000000020631        0xf 
 .text          0x0000000000020640      0x121 /teamspace/studios/this_studio/AI-Automated-Radiology-Report/glibc-2.34/build/libc_pic.a(mempcpy.os)
                0x0000000000020640                mempcpy
                0x0000000000020640                __GI_mempcpy
                0x0000000000020640                __mempcpy
                0x0000000000020640                __GI___mempcpy
 *fill*         0x0000000000020761        0xf 
 .text          0x0000000000020770       0x81 /teamspace/studios/this_studio/AI-Automated-Radiology-Report/glibc-2.34/build/libc_pic.a(stpcpy.os)
                0x0000000000020770                stpcpy
                0x0000000000020770                __GI_stpcpy
                0x0000000000020770                __stpcpy
                0x0000000000020770                __GI___stpcpy
 *fill*         0x00000000000207f1        0xf 
 .text          0x0000000000020800      0x121 /teamspace/studios/this_studio/AI-Automated-Radiology-Report/glibc-2.34/build/libc_pic.a(memcpy.os)
                0x0000000000020800                __GI_memcpy
                0x0000000000020800                __SI__new_memcpy_0
                0x0000000000020800                __new_memcpy
                0x0000000000020800                memcpy@@GLIBC_2.14
 *fill*         0x0000000000020921        0xf 
 .text          0x0000000000020930       0x8d /teamspace/studios/this_studio/AI-Automated-Radiology-Report/glibc-2.34/build/libc_pic.a(rawmemchr.os)
                0x0000000000020930                __GI___rawmemchr
                0x0000000000020930                __rawmemchr
                0x0000000000020930                rawmemchr
 *fill*         0x00000000000209bd        0x3 
 .text          0x00000000000209c0     0x1449 /teamspace/studios/this_studio/AI-Automated-Radiology-Report/glibc-2.34/build/libc_pic.a(strcmp-sse2.os)
                0x00000000000209c0                __strcmp_sse2
 *fill*         0x0000000000021e09        0x7 
 .text          0x0000000000021e10      0x2a3 /teamspace/studios/this_studio/AI-Automated-Radiology-Report/glibc-2.34/build/libc_pic.a(strcmp-sse2-unaligned.os)
                0x0000000000021e10                __strcmp_sse2_unaligned
 .text          0x00000000000220b3        0x0 /teamspace/studios/this_studio/AI-Automated-Radiology-Report/glibc-2.34/build/libc_pic.a(strcmp-ssse3.os)
 .text          0x00000000000220b3        0x0 /teamspace/studios/this_studio/AI-Automated-Radiology-Report/glibc-2.34/build/libc_pic.a(strcmp-avx2.os)
 *fill*         0x00000000000220b3        0xd 
 .text          0x00000000000220c0     0x1859 /teamspace/studios/this_studio/AI-Automated-Radiology-Report/glibc-2.34/build/libc_pic.a(strncmp-sse2.os)
                0x00000000000220c0                __strncmp_sse2
 .text          0x0000000000023919        0x0 /teamspace/studios/this_studio/AI-Automated-Radiology-Report/glibc-2.34/build/libc_pic.a(strncmp-ssse3.os)
 .text          0x0000000000023919        0x0 /teamspace/studios/this_studio/AI-Automated-Radiology-Report/glibc-2.34/build/libc_pic.a(strncmp-sse4_2.os)
 .text          0x0000000000023919        0x0 /teamspace/studios/this_studio/AI-Automated-Radiology-Report/glibc-2.34/build/libc_pic.a(strncmp-avx2.os)
 *fill*         0x0000000000023919        0x7 
 .text          0x0000000000023920      0x323 /teamspace/studios/this_studio/AI-Automated-Radiology-Report/glibc-2.34/build/libc_pic.a(memchr-sse2.os)
                0x0000000000023920                __memchr_sse2
 *fill*         0x0000000000023c43        0xd 
 .text          0x0000000000023c50      0x209 /teamspace/studios/this_studio/AI-Automated-Radiology-Report/glibc-2.34/build/libc_pic.a(rawmemchr-sse2.os)
                0x0000000000023c50                __rawmemchr_sse2
 .text          0x0000000000023e59        0x0 /teamspace/studios/this_studio/AI-Automated-Radiology-Report/glibc-2.34/build/libc_pic.a(memchr-avx2.os)
 .text          0x0000000000023e59        0x0 /teamspace/studios/this_studio/AI-Automated-Radiology-Report/glibc-2.34/build/libc_pic.a(rawmemchr-avx2.os)
 *fill*         0x0000000000023e59        0x7 
 .text          0x0000000000023e60      0x400 /teamspace/studios/this_studio/AI-Automated-Radiology-Report/glibc-2.34/build/libc_pic.a(memcmp-sse2.os)
                0x0000000000023e60                __memcmp_sse2
 .text          0x0000000000024260        0x0 /teamspace/studios/this_studio/AI-Automated-Radiology-Report/glibc-2.34/build/libc_pic.a(memcmp-avx2-movbe.os)
 .text          0x0000000000024260        0x0 /teamspace/studios/this_studio/AI-Automated-Radiology-Report/glibc-2.34/build/libc_pic.a(memcmp-sse4.os)
 .text          0x0000000000024260        0x0 /teamspace/studios/this_studio/AI-Automated-Radiology-Report/glibc-2.34/build/libc_pic.a(memcpy-ssse3.os)
 .text          0x0000000000024260        0x0 /teamspace/studios/this_studio/AI-Automated-Radiology-Report/glibc-2.34/build/libc_pic.a(memmove-ssse3.os)
 .text          0x0000000000024260        0x0 /teamspace/studios/this_studio/AI-Automated-Radiology-Report/glibc-2.34/build/libc_pic.a(memcpy-ssse3-back.os)
 .text          0x0000000000024260        0x0 /teamspace/studios/this_studio/AI-Automated-Radiology-Report/glibc-2.34/build/libc_pic.a(memmove-ssse3-back.os)
 .text          0x0000000000024260        0x0 /teamspace/studios/this_studio/AI-Automated-Radiology-Report/glibc-2.34/build/libc_pic.a(memmove-avx512-no-vzeroupper.os)
 .text          0x0000000000024260      0x22a /teamspace/studios/this_studio/AI-Automated-Radiology-Report/glibc-2.34/build/libc_pic.a(strchr-sse2.os)
                0x0000000000024260                __strchr_sse2
 .text          0x000000000002448a        0x0 /teamspace/studios/this_studio/AI-Automated-Radiology-Report/glibc-2.34/build/libc_pic.a(strchr-avx2.os)
 *fill*         0x000000000002448a        0x6 
 .text          0x0000000000024490      0x19c /teamspace/studios/this_studio/AI-Automated-Radiology-Report/glibc-2.34/build/libc_pic.a(strlen-sse2.os)
                0x0000000000024490                __strlen_sse2
 *fill*         0x000000000002462c        0x4 
 .text          0x0000000000024630      0x218 /teamspace/studios/this_studio/AI-Automated-Radiology-Report/glibc-2.34/build/libc_pic.a(strnlen-sse2.os)
                0x0000000000024630                __strnlen_sse2
 .text          0x0000000000024848        0x0 /teamspace/studios/this_studio/AI-Automated-Radiology-Report/glibc-2.34/build/libc_pic.a(strlen-avx2.os)
 .text          0x0000000000024848        0x0 /teamspace/studios/this_studio/AI-Automated-Radiology-Report/glibc-2.34/build/libc_pic.a(strnlen-avx2.os)
 *fill*         0x0000000000024848        0x8 
 .text          0x0000000000024850       0xec /teamspace/studios/this_studio/AI-Automated-Radiology-Report/glibc-2.34/build/libc_pic.a(stpcpy-sse2.os)
                0x0000000000024850                __stpcpy_sse2
 .text          0x000000000002493c        0x0 /teamspace/studios/this_studio/AI-Automated-Radiology-Report/glibc-2.34/build/libc_pic.a(stpcpy-ssse3.os)
 *fill*         0x000000000002493c        0x4 
 .text          0x0000000000024940      0x6c0 /teamspace/studios/this_studio/AI-Automated-Radiology-Report/glibc-2.34/build/libc_pic.a(stpcpy-sse2-unaligned.os)
                0x0000000000024940                __stpcpy_sse2_unaligned
 .text          0x0000000000025000        0x0 /teamspace/studios/this_studio/AI-Automated-Radiology-Report/glibc-2.34/build/libc_pic.a(stpcpy-avx2.os)
 .text          0x0000000000025000        0x0 /teamspace/studios/this_studio/AI-Automated-Radiology-Report/glibc-2.34/build/libc_pic.a(strchr-sse2-no-bsf.os)
 .text          0x0000000000025000        0x0 /teamspace/studios/this_studio/AI-Automated-Radiology-Report/glibc-2.34/build/libc_pic.a(memcmp-ssse3.os)
 .text          0x0000000000025000       0xa7 /teamspace/studios/this_studio/AI-Automated-Radiology-Report/glibc-2.34/build/libc_pic.a(strcspn-sse2.os)
                0x0000000000025000                __strcspn_sse2
 .text          0x00000000000250a7        0x0 /teamspace/studios/this_studio/AI-Automated-Radiology-Report/glibc-2.34/build/libc_pic.a(strcspn-c.os)
 .text          0x00000000000250a7        0x0 /teamspace/studios/this_studio/AI-Automated-Radiology-Report/glibc-2.34/build/libc_pic.a(varshift.os)
 .text          0x00000000000250a7        0x0 /teamspace/studios/this_studio/AI-Automated-Radiology-Report/glibc-2.34/build/libc_pic.a(memset-avx512-no-vzeroupper.os)
 *fill*         0x00000000000250a7        0x9 
 .text          0x00000000000250b0      0x692 /teamspace/studios/this_studio/AI-Automated-Radiology-Report/glibc-2.34/build/libc_pic.a(memmove-sse2-unaligned-erms.os)
                0x00000000000250b0                __mempcpy_chk_sse2_unaligned
                0x00000000000250c0                __mempcpy_sse2_unaligned
                0x00000000000250d0                __memcpy_chk_sse2_unaligned
                0x00000000000250d0                __memmove_chk_sse2_unaligned
                0x00000000000250e0                __memmove_sse2_unaligned
                0x00000000000250e0                __SI__memmove_sse2_unaligned_0
                0x00000000000250e0                __memcpy_sse2_unaligned
                0x00000000000250e0                memcpy@GLIBC_2.2.5
                0x0000000000025110                __mempcpy_chk_erms
                0x0000000000025120                __mempcpy_erms
                0x0000000000025140                __memcpy_chk_erms
                0x0000000000025140                __memmove_chk_erms
                0x0000000000025150                __memmove_erms
                0x0000000000025150                __memcpy_erms
                0x0000000000025190                __mempcpy_chk_sse2_unaligned_erms
                0x00000000000251a0                __mempcpy_sse2_unaligned_erms
                0x00000000000251b0                __memmove_chk_sse2_unaligned_erms
                0x00000000000251b0                __memcpy_chk_sse2_unaligned_erms
                0x00000000000251c0                __memmove_sse2_unaligned_erms
                0x00000000000251c0                __memcpy_sse2_unaligned_erms
 .text          0x0000000000025742        0x0 /teamspace/studios/this_studio/AI-Automated-Radiology-Report/glibc-2.34/build/libc_pic.a(memmove-avx-unaligned-erms.os)
 .text          0x0000000000025742        0x0 /teamspace/studios/this_studio/AI-Automated-Radiology-Report/glibc-2.34/build/libc_pic.a(memmove-avx512-unaligned-erms.os)
 *fill*         0x0000000000025742        0xe 
 .text          0x0000000000025750      0x1d2 /teamspace/studios/this_studio/AI-Automated-Radiology-Report/glibc-2.34/build/libc_pic.a(memset-sse2-unaligned-erms.os)
                0x0000000000025750                __bzero
                0x0000000000025750                bzero
                0x0000000000025760                __wmemset_chk_sse2_unaligned
                0x0000000000025770                __wmemset_sse2_unaligned
                0x0000000000025790                __memset_chk_sse2_unaligned
                0x00000000000257a0                __memset_sse2_unaligned
                0x00000000000257e0                __memset_chk_erms
                0x00000000000257f0                __memset_erms
                0x0000000000025810                __memset_chk_sse2_unaligned_erms
                0x0000000000025820                __memset_sse2_unaligned_erms
 .text          0x0000000000025922        0x0 /teamspace/studios/this_studio/AI-Automated-Radiology-Report/glibc-2.34/build/libc_pic.a(memset-avx2-unaligned-erms.os)
 .text          0x0000000000025922        0x0 /teamspace/studios/this_studio/AI-Automated-Radiology-Report/glibc-2.34/build/libc_pic.a(memset-avx512-unaligned-erms.os)
 .text          0x0000000000025922        0x0 /teamspace/studios/this_studio/AI-Automated-Radiology-Report/glibc-2.34/build/libc_pic.a(memchr-avx2-rtm.os)
 .text          0x0000000000025922        0x0 /teamspace/studios/this_studio/AI-Automated-Radiology-Report/glibc-2.34/build/libc_pic.a(memcmp-avx2-movbe-rtm.os)
 .text          0x0000000000025922        0x0 /teamspace/studios/this_studio/AI-Automated-Radiology-Report/glibc-2.34/build/libc_pic.a(memmove-avx-unaligned-erms-rtm.os)
 .text          0x0000000000025922        0x0 /teamspace/studios/this_studio/AI-Automated-Radiology-Report/glibc-2.34/build/libc_pic.a(memset-avx2-unaligned-erms-rtm.os)
 .text          0x0000000000025922        0x0 /teamspace/studios/this_studio/AI-Automated-Radiology-Report/glibc-2.34/build/libc_pic.a(rawmemchr-avx2-rtm.os)
 .text          0x0000000000025922        0x0 /teamspace/studios/this_studio/AI-Automated-Radiology-Report/glibc-2.34/build/libc_pic.a(strchr-avx2-rtm.os)
 .text          0x0000000000025922        0x0 /teamspace/studios/this_studio/AI-Automated-Radiology-Report/glibc-2.34/build/libc_pic.a(strcmp-avx2-rtm.os)
 .text          0x0000000000025922        0x0 /teamspace/studios/this_studio/AI-Automated-Radiology-Report/glibc-2.34/build/libc_pic.a(stpcpy-avx2-rtm.os)
 .text          0x0000000000025922        0x0 /teamspace/studios/this_studio/AI-Automated-Radiology-Report/glibc-2.34/build/libc_pic.a(strlen-avx2-rtm.os)
 .text          0x0000000000025922        0x0 /teamspace/studios/this_studio/AI-Automated-Radiology-Report/glibc-2.34/build/libc_pic.a(strncmp-avx2-rtm.os)
 .text          0x0000000000025922        0x0 /teamspace/studios/this_studio/AI-Automated-Radiology-Report/glibc-2.34/build/libc_pic.a(strnlen-avx2-rtm.os)
 .text          0x0000000000025922        0x0 /teamspace/studios/this_studio/AI-Automated-Radiology-Report/glibc-2.34/build/libc_pic.a(memchr-evex.os)
 .text          0x0000000000025922        0x0 /teamspace/studios/this_studio/AI-Automated-Radiology-Report/glibc-2.34/build/libc_pic.a(memcmp-evex-movbe.os)
 .text          0x0000000000025922        0x0 /teamspace/studios/this_studio/AI-Automated-Radiology-Report/glibc-2.34/build/libc_pic.a(memmove-evex-unaligned-erms.os)
 .text          0x0000000000025922        0x0 /teamspace/studios/this_studio/AI-Automated-Radiology-Report/glibc-2.34/build/libc_pic.a(memset-evex-unaligned-erms.os)
 .text          0x0000000000025922        0x0 /teamspace/studios/this_studio/AI-Automated-Radiology-Report/glibc-2.34/build/libc_pic.a(rawmemchr-evex.os)
 .text          0x0000000000025922        0x0 /teamspace/studios/this_studio/AI-Automated-Radiology-Report/glibc-2.34/build/libc_pic.a(stpcpy-evex.os)
 .text          0x0000000000025922        0x0 /teamspace/studios/this_studio/AI-Automated-Radiology-Report/glibc-2.34/build/libc_pic.a(strchr-evex.os)
 .text          0x0000000000025922        0x0 /teamspace/studios/this_studio/AI-Automated-Radiology-Report/glibc-2.34/build/libc_pic.a(strcmp-evex.os)
 .text          0x0000000000025922        0x0 /teamspace/studios/this_studio/AI-Automated-Radiology-Report/glibc-2.34/build/libc_pic.a(strlen-evex.os)
 .text          0x0000000000025922        0x0 /teamspace/studios/this_studio/AI-Automated-Radiology-Report/glibc-2.34/build/libc_pic.a(strncmp-evex.os)
 .text          0x0000000000025922        0x0 /teamspace/studios/this_studio/AI-Automated-Radiology-Report/glibc-2.34/build/libc_pic.a(strnlen-evex.os)
 .text          0x0000000000025922        0x0 /teamspace/studios/this_studio/AI-Automated-Radiology-Report/glibc-2.34/build/libc_pic.a(memchr-evex-rtm.os)
 .text          0x0000000000025922        0x0 /teamspace/studios/this_studio/AI-Automated-Radiology-Report/glibc-2.34/build/libc_pic.a(rawmemchr-evex-rtm.os)
 *fill*         0x0000000000025922        0xe 
 .text          0x0000000000025930      0x188 /teamspace/studios/this_studio/AI-Automated-Radiology-Report/glibc-2.34/build/libc_pic.a(cacheinfo.os)
                0x0000000000025930                __x86_cacheinfo
                0x00000000000259c0                __cache_sysconf
 *fill*         0x0000000000025ab8        0x8 
 .text          0x0000000000025ac0       0x2d /teamspace/studios/this_studio/AI-Automated-Radiology-Report/glibc-2.34/build/libc_pic.a(closedir.os)
                0x0000000000025ac0                __closedir
                0x0000000000025ac0                closedir
 *fill*         0x0000000000025aed        0x3 
 .text          0x0000000000025af0       0x7e /teamspace/studios/this_studio/AI-Automated-Radiology-Report/glibc-2.34/build/libc_pic.a(rewinddir.os)
                0x0000000000025af0                rewinddir
                0x0000000000025af0                __rewinddir
                0x0000000000025af0                __GI___rewinddir
 *fill*         0x0000000000025b6e        0x2 
 .text          0x0000000000025b70       0xf0 /teamspace/studios/this_studio/AI-Automated-Radiology-Report/glibc-2.34/build/libc_pic.a(readdir64.os)
                0x0000000000025b70                readdir
                0x0000000000025b70                __readdir64
                0x0000000000025b70                __readdir
                0x0000000000025b70                __GI___readdir64
                0x0000000000025b70                readdir64
 .text          0x0000000000025c60       0x9a /teamspace/studios/this_studio/AI-Automated-Radiology-Report/glibc-2.34/build/libc_pic.a(fdopendir.os)
                0x0000000000025c60                fdopendir
                0x0000000000025c60                __fdopendir
 *fill*         0x0000000000025cfa        0x6 
 .text          0x0000000000025d00       0x25 /teamspace/studios/this_studio/AI-Automated-Radiology-Report/glibc-2.34/build/libc_pic.a(uname.os)
                0x0000000000025d00                uname
                0x0000000000025d00                __GI_uname
                0x0000000000025d00                __uname
                0x0000000000025d00                __GI___uname
 *fill*         0x0000000000025d25        0xb 
 .text          0x0000000000025d30       0x58 /teamspace/studios/this_studio/AI-Automated-Radiology-Report/glibc-2.34/build/libc_pic.a(_exit.os)
                0x0000000000025d30                _Exit
                0x0000000000025d30                __GI__exit
                0x0000000000025d30                _exit
 *fill*         0x0000000000025d88        0x8 
 .text          0x0000000000025d90        0xc /teamspace/studios/this_studio/AI-Automated-Radiology-Report/glibc-2.34/build/libc_pic.a(getpid.os)
                0x0000000000025d90                __getpid
                0x0000000000025d90                getpid
                0x0000000000025d90                __GI_getpid
                0x0000000000025d90                __GI___getpid
 .text          0x0000000000025d9c        0x0 /teamspace/studios/this_studio/AI-Automated-Radiology-Report/glibc-2.34/build/libc_pic.a(environ.os)
 *fill*         0x0000000000025d9c        0x4 
 .text          0x0000000000025da0       0x16 /teamspace/studios/this_studio/AI-Automated-Radiology-Report/glibc-2.34/build/libc_pic.a(stat64.os)
                0x0000000000025da0                stat64
                0x0000000000025da0                __stat
                0x0000000000025da0                __stat64
                0x0000000000025da0                stat
                0x0000000000025da0                __GI___stat64
 *fill*         0x0000000000025db6        0xa 
 .text          0x0000000000025dc0       0x34 /teamspace/studios/this_studio/AI-Automated-Radiology-Report/glibc-2.34/build/libc_pic.a(fstat64.os)
                0x0000000000025dc0                __GI___fstat64
                0x0000000000025dc0                fstat64
                0x0000000000025dc0                fstat
                0x0000000000025dc0                __fstat64
                0x0000000000025dc0                __fstat
 *fill*         0x0000000000025df4        0xc 
 .text          0x0000000000025e00       0x19 /teamspace/studios/this_studio/AI-Automated-Radiology-Report/glibc-2.34/build/libc_pic.a(lstat64.os)
                0x0000000000025e00                __lstat64
                0x0000000000025e00                lstat
                0x0000000000025e00                lstat64
                0x0000000000025e00                __GI___lstat64
                0x0000000000025e00                __lstat
 *fill*         0x0000000000025e19        0x7 
 .text          0x0000000000025e20       0x32 /teamspace/studios/this_studio/AI-Automated-Radiology-Report/glibc-2.34/build/libc_pic.a(fstatat64.os)
                0x0000000000025e20                fstatat
                0x0000000000025e20                __fstatat
                0x0000000000025e20                fstatat64
                0x0000000000025e20                __fstatat64
                0x0000000000025e20                __GI___fstatat
                0x0000000000025e20                __GI___fstatat64
 *fill*         0x0000000000025e52        0xe 
 .text          0x0000000000025e60      0x103 /teamspace/studios/this_studio/AI-Automated-Radiology-Report/glibc-2.34/build/libc_pic.a(openat64.os)
                0x0000000000025e60                __openat64
                0x0000000000025e60                __GI___openat
                0x0000000000025e60                __GI___openat64
                0x0000000000025e60                __libc_openat64
                0x0000000000025e60                __openat
                0x0000000000025e60                openat
 *fill*         0x0000000000025f63        0xd 
 .text          0x0000000000025f70       0x2c /teamspace/studios/this_studio/AI-Automated-Radiology-Report/glibc-2.34/build/libc_pic.a(lseek64.os)
                0x0000000000025f70                __GI___lseek
                0x0000000000025f70                __lseek64
                0x0000000000025f70                lseek
                0x0000000000025f70                __libc_lseek64
                0x0000000000025f70                llseek@GLIBC_2.2.5
                0x0000000000025f70                __lseek
                0x0000000000025f70                __SI__lseek64_0
                0x0000000000025f70                __libc_lseek
                0x0000000000025f70                lseek64
 *fill*         0x0000000000025f9c        0x4 
 .text          0x0000000000025fa0       0x2a /teamspace/studios/this_studio/AI-Automated-Radiology-Report/glibc-2.34/build/libc_pic.a(access.os)
                0x0000000000025fa0                __GI___access
                0x0000000000025fa0                access
                0x0000000000025fa0                __access
 *fill*         0x0000000000025fca        0x6 
 .text          0x0000000000025fd0       0x2a /teamspace/studios/this_studio/AI-Automated-Radiology-Report/glibc-2.34/build/libc_pic.a(close_nocancel.os)
                0x0000000000025fd0                __GI___close_nocancel
                0x0000000000025fd0                __close_nocancel
 *fill*         0x0000000000025ffa        0x6 
 .text          0x0000000000026000       0x93 /teamspace/studios/this_studio/AI-Automated-Radiology-Report/glibc-2.34/build/libc_pic.a(fcntl_nocancel.os)
                0x0000000000026000                __fcntl64_nocancel_adjusted
                0x0000000000026060                __fcntl64_nocancel
                0x0000000000026060                __GI___fcntl64_nocancel
 *fill*         0x0000000000026093        0xd 
 .text          0x00000000000260a0       0x82 /teamspace/studios/this_studio/AI-Automated-Radiology-Report/glibc-2.34/build/libc_pic.a(open64_nocancel.os)
                0x00000000000260a0                __GI___open_nocancel
                0x00000000000260a0                __open_nocancel
                0x00000000000260a0                __GI___open64_nocancel
                0x00000000000260a0                __open64_nocancel
 *fill*         0x0000000000026122        0xe 
 .text          0x0000000000026130       0x2c /teamspace/studios/this_studio/AI-Automated-Radiology-Report/glibc-2.34/build/libc_pic.a(read_nocancel.os)
                0x0000000000026130                __read_nocancel
                0x0000000000026130                __GI___read_nocancel
 *fill*         0x000000000002615c        0x4 
 .text          0x0000000000026160       0x34 /teamspace/studios/this_studio/AI-Automated-Radiology-Report/glibc-2.34/build/libc_pic.a(pread64_nocancel.os)
                0x0000000000026160                __GI___pread64_nocancel
                0x0000000000026160                __pread64_nocancel
 *fill*         0x0000000000026194        0xc 
 .text          0x00000000000261a0       0x2c /teamspace/studios/this_studio/AI-Automated-Radiology-Report/glibc-2.34/build/libc_pic.a(write_nocancel.os)
                0x00000000000261a0                __GI___write_nocancel
                0x00000000000261a0                __write_nocancel
 *fill*         0x00000000000261cc        0x4 
 .text          0x00000000000261d0       0xa5 /teamspace/studios/this_studio/AI-Automated-Radiology-Report/glibc-2.34/build/libc_pic.a(mmap64.os)
                0x00000000000261d0                __GI___mmap
                0x00000000000261d0                __mmap
                0x00000000000261d0                mmap
                0x00000000000261d0                __GI___mmap64
                0x00000000000261d0                __mmap64
                0x00000000000261d0                mmap64
 *fill*         0x0000000000026275        0xb 
 .text          0x0000000000026280       0x25 /teamspace/studios/this_studio/AI-Automated-Radiology-Report/glibc-2.34/build/libc_pic.a(munmap.os)
                0x0000000000026280                munmap
                0x0000000000026280                __GI___munmap
                0x0000000000026280                __GI_munmap
                0x0000000000026280                __munmap
 *fill*         0x00000000000262a5        0xb 
 .text          0x00000000000262b0       0x25 /teamspace/studios/this_studio/AI-Automated-Radiology-Report/glibc-2.34/build/libc_pic.a(mprotect.os)
                0x00000000000262b0                __mprotect
                0x00000000000262b0                __GI___mprotect
                0x00000000000262b0                __GI_mprotect
                0x00000000000262b0                mprotect
 *fill*         0x00000000000262d5        0xb 
 .text          0x00000000000262e0      0x1bf /teamspace/studios/this_studio/AI-Automated-Radiology-Report/glibc-2.34/build/libc_pic.a(profil.os)
                0x0000000000026330                __profil
                0x0000000000026330                profil
 *fill*         0x000000000002649f        0x1 
 .text          0x00000000000264a0        0xf /teamspace/studios/this_studio/AI-Automated-Radiology-Report/glibc-2.34/build/libc_pic.a(prof-freq.os)
                0x00000000000264a0                __GI___profile_frequency
                0x00000000000264a0                __profile_frequency
 *fill*         0x00000000000264af        0x1 
 .text          0x00000000000264b0       0x7b /teamspace/studios/this_studio/AI-Automated-Radiology-Report/glibc-2.34/build/libc_pic.a(dl-addr-obj.os)
                0x00000000000264b0                _dl_addr_inside_object
 *fill*         0x000000000002652b        0x5 
 .text          0x0000000000026530       0x34 /teamspace/studios/this_studio/AI-Automated-Radiology-Report/glibc-2.34/build/libc_pic.a(sigaction.os)
                0x0000000000026530                sigaction
                0x0000000000026530                __GI___sigaction
                0x0000000000026530                __sigaction
 *fill*         0x0000000000026564        0xc 
 .text          0x0000000000026570      0x1b5 /teamspace/studios/this_studio/AI-Automated-Radiology-Report/glibc-2.34/build/libc_pic.a(libc_sigaction.os)
                0x0000000000026590                __libc_sigaction
                0x0000000000026590                __GI___libc_sigaction
 *fill*         0x0000000000026725        0xb 
 .text          0x0000000000026730       0x2a /teamspace/studios/this_studio/AI-Automated-Radiology-Report/glibc-2.34/build/libc_pic.a(setitimer.os)
                0x0000000000026730                setitimer
                0x0000000000026730                __setitimer
 *fill*         0x000000000002675a        0x6 
 .text          0x0000000000026760       0x3c /teamspace/studios/this_studio/AI-Automated-Radiology-Report/glibc-2.34/build/libc_pic.a(getdents64.os)
                0x0000000000026760                __getdents
                0x0000000000026760                __GI___getdents64
                0x0000000000026760                getdents64
                0x0000000000026760                __getdents64
 *(.gnu.warning)

.text.ssse3     0x0000000000000000     0xedb3
 .text.ssse3    0x0000000000000000     0x1269 /teamspace/studios/this_studio/AI-Automated-Radiology-Report/glibc-2.34/build/libc_pic.a(strcmp-ssse3.os)
                0x0000000000000000                __GI___strcmp_ssse3
                0x0000000000000000                __strcmp_ssse3
 *fill*         0x0000000000001269        0x7 
 .text.ssse3    0x0000000000001270     0x1769 /teamspace/studios/this_studio/AI-Automated-Radiology-Report/glibc-2.34/build/libc_pic.a(strncmp-ssse3.os)
                0x0000000000001270                __strncmp_ssse3
 *fill*         0x00000000000029d9        0x7 
 .text.ssse3    0x00000000000029e0     0x29f7 /teamspace/studios/this_studio/AI-Automated-Radiology-Report/glibc-2.34/build/libc_pic.a(memcpy-ssse3.os)
                0x00000000000029e0                __mempcpy_chk_ssse3
                0x00000000000029f0                __mempcpy_ssse3
                0x0000000000002a00                __memcpy_chk_ssse3
                0x0000000000002a10                __memcpy_ssse3
 *fill*         0x00000000000053d7        0x9 
 .text.ssse3    0x00000000000053e0     0x2b88 /teamspace/studios/this_studio/AI-Automated-Radiology-Report/glibc-2.34/build/libc_pic.a(memmove-ssse3.os)
                0x00000000000053e0                __memmove_chk_ssse3
                0x00000000000053f0                __memmove_ssse3
 *fill*         0x0000000000007f68        0x8 
 .text.ssse3    0x0000000000007f70     0x2b06 /teamspace/studios/this_studio/AI-Automated-Radiology-Report/glibc-2.34/build/libc_pic.a(memcpy-ssse3-back.os)
                0x0000000000007f70                __mempcpy_chk_ssse3_back
                0x0000000000007f80                __mempcpy_ssse3_back
                0x0000000000007f90                __memcpy_chk_ssse3_back
                0x0000000000007fa0                __memcpy_ssse3_back
 *fill*         0x000000000000aa76        0xa 
 .text.ssse3    0x000000000000aa80     0x2b26 /teamspace/studios/this_studio/AI-Automated-Radiology-Report/glibc-2.34/build/libc_pic.a(memmove-ssse3-back.os)
                0x000000000000aa80                __memmove_chk_ssse3_back
                0x000000000000aa90                __memmove_ssse3_back
 *fill*         0x000000000000d5a6        0xa 
 .text.ssse3    0x000000000000d5b0     0x1803 /teamspace/studios/this_studio/AI-Automated-Radiology-Report/glibc-2.34/build/libc_pic.a(stpcpy-ssse3.os)
                0x000000000000d5b0                __stpcpy_ssse3

.text.avx       0x0000000000000000     0x2561
 .text.avx      0x0000000000000000      0x43f /teamspace/studios/this_studio/AI-Automated-Radiology-Report/glibc-2.34/build/libc_pic.a(strcmp-avx2.os)
                0x0000000000000000                __strcmp_avx2
 *fill*         0x000000000000043f        0x1 
 .text.avx      0x0000000000000440      0x528 /teamspace/studios/this_studio/AI-Automated-Radiology-Report/glibc-2.34/build/libc_pic.a(strncmp-avx2.os)
                0x0000000000000440                __strncmp_avx2
 *fill*         0x0000000000000968       0x18 
 .text.avx      0x0000000000000980      0x2cf /teamspace/studios/this_studio/AI-Automated-Radiology-Report/glibc-2.34/build/libc_pic.a(memchr-avx2.os)
                0x0000000000000980                __memchr_avx2
 *fill*         0x0000000000000c4f        0x1 
 .text.avx      0x0000000000000c50      0x16f /teamspace/studios/this_studio/AI-Automated-Radiology-Report/glibc-2.34/build/libc_pic.a(rawmemchr-avx2.os)
                0x0000000000000c50                __rawmemchr_avx2
 *fill*         0x0000000000000dbf        0x1 
 .text.avx      0x0000000000000dc0      0x43d /teamspace/studios/this_studio/AI-Automated-Radiology-Report/glibc-2.34/build/libc_pic.a(memcmp-avx2-movbe.os)
                0x0000000000000dc0                __memcmp_avx2_movbe
 *fill*         0x00000000000011fd        0x3 
 .text.avx      0x0000000000001200      0x271 /teamspace/studios/this_studio/AI-Automated-Radiology-Report/glibc-2.34/build/libc_pic.a(strchr-avx2.os)
                0x0000000000001200                __strchr_avx2
 *fill*         0x0000000000001471        0xf 
 .text.avx      0x0000000000001480      0x172 /teamspace/studios/this_studio/AI-Automated-Radiology-Report/glibc-2.34/build/libc_pic.a(strlen-avx2.os)
                0x0000000000001480                __strlen_avx2
 *fill*         0x00000000000015f2        0xe 
 .text.avx      0x0000000000001600      0x2ce /teamspace/studios/this_studio/AI-Automated-Radiology-Report/glibc-2.34/build/libc_pic.a(strnlen-avx2.os)
                0x0000000000001600                __strnlen_avx2
 *fill*         0x00000000000018ce        0x2 
 .text.avx      0x00000000000018d0      0x3ac /teamspace/studios/this_studio/AI-Automated-Radiology-Report/glibc-2.34/build/libc_pic.a(stpcpy-avx2.os)
                0x00000000000018d0                __stpcpy_avx2
 *fill*         0x0000000000001c7c        0x4 
 .text.avx      0x0000000000001c80      0x72e /teamspace/studios/this_studio/AI-Automated-Radiology-Report/glibc-2.34/build/libc_pic.a(memmove-avx-unaligned-erms.os)
                0x0000000000001c80                __mempcpy_chk_avx_unaligned
                0x0000000000001c90                __mempcpy_avx_unaligned
                0x0000000000001ca0                __memcpy_chk_avx_unaligned
                0x0000000000001ca0                __memmove_chk_avx_unaligned
                0x0000000000001cb0                __memcpy_avx_unaligned
                0x0000000000001cb0                __memmove_avx_unaligned
                0x0000000000001cf0                __mempcpy_chk_avx_unaligned_erms
                0x0000000000001d00                __mempcpy_avx_unaligned_erms
                0x0000000000001d10                __memmove_chk_avx_unaligned_erms
                0x0000000000001d10                __memcpy_chk_avx_unaligned_erms
                0x0000000000001d20                __memcpy_avx_unaligned_erms
                0x0000000000001d20                __memmove_avx_unaligned_erms
 *fill*         0x00000000000023ae        0x2 
 .text.avx      0x00000000000023b0      0x1b1 /teamspace/studios/this_studio/AI-Automated-Radiology-Report/glibc-2.34/build/libc_pic.a(memset-avx2-unaligned-erms.os)
                0x00000000000023b0                __wmemset_chk_avx2_unaligned
                0x00000000000023c0                __wmemset_avx2_unaligned
                0x00000000000023e0                __memset_chk_avx2_unaligned
                0x00000000000023f0                __memset_avx2_unaligned
                0x0000000000002420                __memset_avx2_erms
                0x0000000000002440                __memset_chk_avx2_unaligned_erms
                0x0000000000002450                __memset_avx2_unaligned_erms

.text.sse4.2    0x0000000000000000     0x111f
 .text.sse4.2   0x0000000000000000      0xfd9 /teamspace/studios/this_studio/AI-Automated-Radiology-Report/glibc-2.34/build/libc_pic.a(strncmp-sse4_2.os)
                0x0000000000000000                __strncmp_sse42
 *fill*         0x0000000000000fd9        0x7 
 .text.sse4.2   0x0000000000000fe0      0x13f /teamspace/studios/this_studio/AI-Automated-Radiology-Report/glibc-2.34/build/libc_pic.a(strcspn-c.os)
                0x0000000000000fe0                __strcspn_sse42

.text.sse4.1    0x0000000000000000     0x163e
 .text.sse4.1   0x0000000000000000     0x163e /teamspace/studios/this_studio/AI-Automated-Radiology-Report/glibc-2.34/build/libc_pic.a(memcmp-sse4.os)
                0x0000000000000000                __memcmp_sse4_1

.text.avx512    0x0000000000000000      0x9f4
 .text.avx512   0x0000000000000000      0x76f /teamspace/studios/this_studio/AI-Automated-Radiology-Report/glibc-2.34/build/libc_pic.a(memmove-avx512-no-vzeroupper.os)
                0x0000000000000000                __mempcpy_chk_avx512_no_vzeroupper
                0x0000000000000010                __mempcpy_avx512_no_vzeroupper
                0x0000000000000020                __memcpy_chk_avx512_no_vzeroupper
                0x0000000000000020                __memmove_chk_avx512_no_vzeroupper
                0x0000000000000030                __memcpy_avx512_no_vzeroupper
                0x0000000000000030                __memmove_avx512_no_vzeroupper
 *fill*         0x000000000000076f        0x1 
 .text.avx512   0x0000000000000770      0x284 /teamspace/studios/this_studio/AI-Automated-Radiology-Report/glibc-2.34/build/libc_pic.a(memset-avx512-no-vzeroupper.os)
                0x0000000000000770                __memset_chk_avx512_no_vzeroupper
                0x0000000000000780                __memset_avx512_no_vzeroupper

.text.atom      0x0000000000000000     0x1a83
 .text.atom     0x0000000000000000      0x315 /teamspace/studios/this_studio/AI-Automated-Radiology-Report/glibc-2.34/build/libc_pic.a(strchr-sse2-no-bsf.os)
                0x0000000000000000                __strchr_sse2_no_bsf
 *fill*         0x0000000000000315        0xb 
 .text.atom     0x0000000000000320     0x1763 /teamspace/studios/this_studio/AI-Automated-Radiology-Report/glibc-2.34/build/libc_pic.a(memcmp-ssse3.os)
                0x0000000000000320                __memcmp_ssse3

.text.evex512   0x0000000000000000      0xa6b
 .text.evex512  0x0000000000000000      0x860 /teamspace/studios/this_studio/AI-Automated-Radiology-Report/glibc-2.34/build/libc_pic.a(memmove-avx512-unaligned-erms.os)
                0x0000000000000000                __mempcpy_chk_avx512_unaligned
                0x0000000000000010                __mempcpy_avx512_unaligned
                0x0000000000000020                __memcpy_chk_avx512_unaligned
                0x0000000000000020                __memmove_chk_avx512_unaligned
                0x0000000000000030                __memmove_avx512_unaligned
                0x0000000000000030                __memcpy_avx512_unaligned
                0x0000000000000070                __mempcpy_chk_avx512_unaligned_erms
                0x0000000000000080                __mempcpy_avx512_unaligned_erms
                0x0000000000000090                __memcpy_chk_avx512_unaligned_erms
                0x0000000000000090                __memmove_chk_avx512_unaligned_erms
                0x00000000000000a0                __memmove_avx512_unaligned_erms
                0x00000000000000a0                __memcpy_avx512_unaligned_erms
 .text.evex512  0x0000000000000860      0x20b /teamspace/studios/this_studio/AI-Automated-Radiology-Report/glibc-2.34/build/libc_pic.a(memset-avx512-unaligned-erms.os)
                0x0000000000000860                __wmemset_chk_avx512_unaligned
                0x0000000000000870                __wmemset_avx512_unaligned
                0x0000000000000890                __memset_chk_avx512_unaligned
                0x00000000000008a0                __memset_avx512_unaligned
                0x00000000000008d0                __memset_avx512_erms
                0x00000000000008f0                __memset_chk_avx512_unaligned_erms
                0x0000000000000900                __memset_avx512_unaligned_erms

.text.avx.rtm   0x0000000000000000     0x25fc
 .text.avx.rtm  0x0000000000000000      0x2c0 /teamspace/studios/this_studio/AI-Automated-Radiology-Report/glibc-2.34/build/libc_pic.a(memchr-avx2-rtm.os)
                0x0000000000000000                __memchr_avx2_rtm
 .text.avx.rtm  0x00000000000002c0      0x43d /teamspace/studios/this_studio/AI-Automated-Radiology-Report/glibc-2.34/build/libc_pic.a(memcmp-avx2-movbe-rtm.os)
                0x00000000000002c0                __memcmp_avx2_movbe_rtm
 *fill*         0x00000000000006fd        0x3 
 .text.avx.rtm  0x0000000000000700      0x73f /teamspace/studios/this_studio/AI-Automated-Radiology-Report/glibc-2.34/build/libc_pic.a(memmove-avx-unaligned-erms-rtm.os)
                0x0000000000000700                __mempcpy_chk_avx_unaligned_rtm
                0x0000000000000710                __mempcpy_avx_unaligned_rtm
                0x0000000000000720                __memmove_chk_avx_unaligned_rtm
                0x0000000000000720                __memcpy_chk_avx_unaligned_rtm
                0x0000000000000730                __memcpy_avx_unaligned_rtm
                0x0000000000000730                __memmove_avx_unaligned_rtm
                0x0000000000000770                __mempcpy_chk_avx_unaligned_erms_rtm
                0x0000000000000780                __mempcpy_avx_unaligned_erms_rtm
                0x0000000000000790                __memcpy_chk_avx_unaligned_erms_rtm
                0x0000000000000790                __memmove_chk_avx_unaligned_erms_rtm
                0x00000000000007a0                __memmove_avx_unaligned_erms_rtm
                0x00000000000007a0                __memcpy_avx_unaligned_erms_rtm
 *fill*         0x0000000000000e3f        0x1 
 .text.avx.rtm  0x0000000000000e40      0x1c6 /teamspace/studios/this_studio/AI-Automated-Radiology-Report/glibc-2.34/build/libc_pic.a(memset-avx2-unaligned-erms-rtm.os)
                0x0000000000000e40                __wmemset_chk_avx2_unaligned_rtm
                0x0000000000000e50                __wmemset_avx2_unaligned_rtm
                0x0000000000000e70                __memset_chk_avx2_unaligned_rtm
                0x0000000000000e80                __memset_avx2_unaligned_rtm
                0x0000000000000eb0                __memset_avx2_erms_rtm
                0x0000000000000ed0                __memset_chk_avx2_unaligned_erms_rtm
                0x0000000000000ee0                __memset_avx2_unaligned_erms_rtm
 *fill*         0x0000000000001006        0xa 
 .text.avx.rtm  0x0000000000001010      0x160 /teamspace/studios/this_studio/AI-Automated-Radiology-Report/glibc-2.34/build/libc_pic.a(rawmemchr-avx2-rtm.os)
                0x0000000000001010                __rawmemchr_avx2_rtm
 *fill*         0x0000000000001170       0x10 
 .text.avx.rtm  0x0000000000001180      0x27a /teamspace/studios/this_studio/AI-Automated-Radiology-Report/glibc-2.34/build/libc_pic.a(strchr-avx2-rtm.os)
                0x0000000000001180                __strchr_avx2_rtm
 *fill*         0x00000000000013fa        0x6 
 .text.avx.rtm  0x0000000000001400      0x470 /teamspace/studios/this_studio/AI-Automated-Radiology-Report/glibc-2.34/build/libc_pic.a(strcmp-avx2-rtm.os)
                0x0000000000001400                __strcmp_avx2_rtm
 .text.avx.rtm  0x0000000000001870      0x3bd /teamspace/studios/this_studio/AI-Automated-Radiology-Report/glibc-2.34/build/libc_pic.a(stpcpy-avx2-rtm.os)
                0x0000000000001870                __stpcpy_avx2_rtm
 *fill*         0x0000000000001c2d       0x13 
 .text.avx.rtm  0x0000000000001c40      0x16b /teamspace/studios/this_studio/AI-Automated-Radiology-Report/glibc-2.34/build/libc_pic.a(strlen-avx2-rtm.os)
                0x0000000000001c40                __strlen_avx2_rtm
 *fill*         0x0000000000001dab        0x5 
 .text.avx.rtm  0x0000000000001db0      0x54d /teamspace/studios/this_studio/AI-Automated-Radiology-Report/glibc-2.34/build/libc_pic.a(strncmp-avx2-rtm.os)
                0x0000000000001db0                __strncmp_avx2_rtm
 *fill*         0x00000000000022fd        0x3 
 .text.avx.rtm  0x0000000000002300      0x2fc /teamspace/studios/this_studio/AI-Automated-Radiology-Report/glibc-2.34/build/libc_pic.a(strnlen-avx2-rtm.os)
                0x0000000000002300                __strnlen_avx2_rtm

.text.evex      0x0000000000000000     0x2b7e
 .text.evex     0x0000000000000000      0x2da /teamspace/studios/this_studio/AI-Automated-Radiology-Report/glibc-2.34/build/libc_pic.a(memchr-evex.os)
                0x0000000000000000                __memchr_evex
 *fill*         0x00000000000002da        0x6 
 .text.evex     0x00000000000002e0      0x4bd /teamspace/studios/this_studio/AI-Automated-Radiology-Report/glibc-2.34/build/libc_pic.a(memcmp-evex-movbe.os)
                0x00000000000002e0                __memcmp_evex_movbe
 *fill*         0x000000000000079d        0x3 
 .text.evex     0x00000000000007a0      0x84b /teamspace/studios/this_studio/AI-Automated-Radiology-Report/glibc-2.34/build/libc_pic.a(memmove-evex-unaligned-erms.os)
                0x00000000000007a0                __mempcpy_chk_evex_unaligned
                0x00000000000007b0                __mempcpy_evex_unaligned
                0x00000000000007c0                __memcpy_chk_evex_unaligned
                0x00000000000007c0                __memmove_chk_evex_unaligned
                0x00000000000007d0                __memmove_evex_unaligned
                0x00000000000007d0                __memcpy_evex_unaligned
                0x0000000000000810                __mempcpy_chk_evex_unaligned_erms
                0x0000000000000820                __mempcpy_evex_unaligned_erms
                0x0000000000000830                __memcpy_chk_evex_unaligned_erms
                0x0000000000000830                __memmove_chk_evex_unaligned_erms
                0x0000000000000840                __memmove_evex_unaligned_erms
                0x0000000000000840                __memcpy_evex_unaligned_erms
 *fill*         0x0000000000000feb        0x5 
 .text.evex     0x0000000000000ff0      0x1f7 /teamspace/studios/this_studio/AI-Automated-Radiology-Report/glibc-2.34/build/libc_pic.a(memset-evex-unaligned-erms.os)
                0x0000000000000ff0                __wmemset_chk_evex_unaligned
                0x0000000000001000                __wmemset_evex_unaligned
                0x0000000000001020                __memset_chk_evex_unaligned
                0x0000000000001030                __memset_evex_unaligned
                0x0000000000001060                __memset_evex_erms
                0x0000000000001080                __memset_chk_evex_unaligned_erms
                0x0000000000001090                __memset_evex_unaligned_erms
 *fill*         0x00000000000011e7       0x19 
 .text.evex     0x0000000000001200      0x17d /teamspace/studios/this_studio/AI-Automated-Radiology-Report/glibc-2.34/build/libc_pic.a(rawmemchr-evex.os)
                0x0000000000001200                __rawmemchr_evex
 *fill*         0x000000000000137d        0x3 
 .text.evex     0x0000000000001380      0x447 /teamspace/studios/this_studio/AI-Automated-Radiology-Report/glibc-2.34/build/libc_pic.a(stpcpy-evex.os)
                0x0000000000001380                __stpcpy_evex
 *fill*         0x00000000000017c7       0x19 
 .text.evex     0x00000000000017e0      0x28f /teamspace/studios/this_studio/AI-Automated-Radiology-Report/glibc-2.34/build/libc_pic.a(strchr-evex.os)
                0x00000000000017e0                __strchr_evex
 *fill*         0x0000000000001a6f        0x1 
 .text.evex     0x0000000000001a70      0x5e2 /teamspace/studios/this_studio/AI-Automated-Radiology-Report/glibc-2.34/build/libc_pic.a(strcmp-evex.os)
                0x0000000000001a70                __strcmp_evex
 *fill*         0x0000000000002052        0xe 
 .text.evex     0x0000000000002060      0x174 /teamspace/studios/this_studio/AI-Automated-Radiology-Report/glibc-2.34/build/libc_pic.a(strlen-evex.os)
                0x0000000000002060                __strlen_evex
 *fill*         0x00000000000021d4        0xc 
 .text.evex     0x00000000000021e0      0x6cf /teamspace/studios/this_studio/AI-Automated-Radiology-Report/glibc-2.34/build/libc_pic.a(strncmp-evex.os)
                0x00000000000021e0                __strncmp_evex
 *fill*         0x00000000000028af       0x11 
 .text.evex     0x00000000000028c0      0x2be /teamspace/studios/this_studio/AI-Automated-Radiology-Report/glibc-2.34/build/libc_pic.a(strnlen-evex.os)
                0x00000000000028c0                __strnlen_evex

.text.evex.rtm  0x0000000000000000      0x49a
 .text.evex.rtm
                0x0000000000000000      0x2ea /teamspace/studios/this_studio/AI-Automated-Radiology-Report/glibc-2.34/build/libc_pic.a(memchr-evex-rtm.os)
                0x0000000000000000                __memchr_evex_rtm
 *fill*         0x00000000000002ea       0x16 
 .text.evex.rtm
                0x0000000000000300      0x19a /teamspace/studios/this_studio/AI-Automated-Radiology-Report/glibc-2.34/build/libc_pic.a(rawmemchr-evex-rtm.os)
                0x0000000000000300                __rawmemchr_evex_rtm

.fini
 *(SORT_NONE(.fini))

.rodata         0x0000000000000000     0x16f4
 *(.rodata)
 .rodata        0x0000000000000000     0x1515 /teamspace/studios/this_studio/AI-Automated-Radiology-Report/glibc-2.34/build/elf/dl-allobjs.os
 *fill*         0x0000000000001515        0x3 
 .rodata        0x0000000000001518       0x40 /teamspace/studios/this_studio/AI-Automated-Radiology-Report/glibc-2.34/build/libc_pic.a(strcmp-sse2.os)
 .rodata        0x0000000000001558       0x40 /teamspace/studios/this_studio/AI-Automated-Radiology-Report/glibc-2.34/build/libc_pic.a(strcmp-ssse3.os)
 .rodata        0x0000000000001598       0x40 /teamspace/studios/this_studio/AI-Automated-Radiology-Report/glibc-2.34/build/libc_pic.a(strncmp-sse2.os)
 .rodata        0x00000000000015d8       0x40 /teamspace/studios/this_studio/AI-Automated-Radiology-Report/glibc-2.34/build/libc_pic.a(strncmp-ssse3.os)
 .rodata        0x0000000000001618       0x80 /teamspace/studios/this_studio/AI-Automated-Radiology-Report/glibc-2.34/build/libc_pic.a(stpcpy-sse2-unaligned.os)
 *fill*         0x0000000000001698        0x8 
 .rodata        0x00000000000016a0       0x1f /teamspace/studios/this_studio/AI-Automated-Radiology-Report/glibc-2.34/build/libc_pic.a(varshift.os)
                0x00000000000016a0                ___m128i_shift_right
 *fill*         0x00000000000016bf        0x1 
 .rodata        0x00000000000016c0       0x34 /teamspace/studios/this_studio/AI-Automated-Radiology-Report/glibc-2.34/build/libc_pic.a(cacheinfo.os)

.rodata.str1.1  0x0000000000000000     0x1872
 .rodata.str1.1
                0x0000000000000000     0x185d /teamspace/studios/this_studio/AI-Automated-Radiology-Report/glibc-2.34/build/elf/dl-allobjs.os
 .rodata.str1.1
                0x000000000000185d       0x14 /teamspace/studios/this_studio/AI-Automated-Radiology-Report/glibc-2.34/build/libc_pic.a(check_fds.os)
 .rodata.str1.1
                0x0000000000001871        0x1 /teamspace/studios/this_studio/AI-Automated-Radiology-Report/glibc-2.34/build/libc_pic.a(fstat64.os)

.rodata.str1.8  0x0000000000000000     0x2fdf
 .rodata.str1.8
                0x0000000000000000     0x2fa1 /teamspace/studios/this_studio/AI-Automated-Radiology-Report/glibc-2.34/build/elf/dl-allobjs.os
 *fill*         0x0000000000002fa1        0x7 
 .rodata.str1.8
                0x0000000000002fa8       0x37 /teamspace/studios/this_studio/AI-Automated-Radiology-Report/glibc-2.34/build/libc_pic.a(lowlevellock.os)

.rodata.str1.16
                0x0000000000000000      0x4a2
 .rodata.str1.16
                0x0000000000000000      0x4a2 /teamspace/studios/this_studio/AI-Automated-Radiology-Report/glibc-2.34/build/elf/dl-allobjs.os
                0x00000000000003f0                __GI__itoa_lower_digits
                0x00000000000003f0                _itoa_lower_digits
                0x0000000000000470                _dl_hwcaps_subdirs

.rodata.cst16   0x0000000000000000       0x10
 .rodata.cst16  0x0000000000000000       0x10 /teamspace/studios/this_studio/AI-Automated-Radiology-Report/glibc-2.34/build/elf/dl-allobjs.os

.rodata.cst4    0x0000000000000000        0x4
 .rodata.cst4   0x0000000000000000        0x4 /teamspace/studios/this_studio/AI-Automated-Radiology-Report/glibc-2.34/build/elf/dl-allobjs.os

.rodata.str1.32
                0x0000000000000000       0x7b
 .rodata.str1.32
                0x0000000000000000       0x7b /teamspace/studios/this_studio/AI-Automated-Radiology-Report/glibc-2.34/build/elf/dl-allobjs.os

.rodata.sse4.2  0x0000000000000000       0x40
 .rodata.sse4.2
                0x0000000000000000       0x40 /teamspace/studios/this_studio/AI-Automated-Radiology-Report/glibc-2.34/build/libc_pic.a(strncmp-sse4_2.os)

.rodata.sse4.1  0x0000000000000000      0x140
 .rodata.sse4.1
                0x0000000000000000      0x140 /teamspace/studios/this_studio/AI-Automated-Radiology-Report/glibc-2.34/build/libc_pic.a(memcmp-sse4.os)

.rodata.ssse3   0x0000000000000000      0xd80
 .rodata.ssse3  0x0000000000000000      0x1c0 /teamspace/studios/this_studio/AI-Automated-Radiology-Report/glibc-2.34/build/libc_pic.a(memcpy-ssse3.os)
 .rodata.ssse3  0x00000000000001c0      0x1c0 /teamspace/studios/this_studio/AI-Automated-Radiology-Report/glibc-2.34/build/libc_pic.a(memmove-ssse3.os)
 .rodata.ssse3  0x0000000000000380      0x500 /teamspace/studios/this_studio/AI-Automated-Radiology-Report/glibc-2.34/build/libc_pic.a(memcpy-ssse3-back.os)
 .rodata.ssse3  0x0000000000000880      0x500 /teamspace/studios/this_studio/AI-Automated-Radiology-Report/glibc-2.34/build/libc_pic.a(memmove-ssse3-back.os)

.rodata1
 *(.rodata1)

.eh_frame_hdr
 *(.eh_frame_hdr)

.eh_frame       0x0000000000000000     0x4e94
 *(.eh_frame)
 .eh_frame      0x0000000000000000     0x2fe8 /teamspace/studios/this_studio/AI-Automated-Radiology-Report/glibc-2.34/build/elf/dl-allobjs.os
                                       0x3050 (size before relaxing)
 .eh_frame      0x0000000000002fe8       0x68 /teamspace/studios/this_studio/AI-Automated-Radiology-Report/glibc-2.34/build/libc_pic.a(check_fds.os)
 .eh_frame      0x0000000000003050       0x30 /teamspace/studios/this_studio/AI-Automated-Radiology-Report/glibc-2.34/build/libc_pic.a(setjmp.os)
 .eh_frame      0x0000000000003080       0x48 /teamspace/studios/this_studio/AI-Automated-Radiology-Report/glibc-2.34/build/libc_pic.a(__longjmp.os)
 .eh_frame      0x00000000000030c8       0x70 /teamspace/studios/this_studio/AI-Automated-Radiology-Report/glibc-2.34/build/libc_pic.a(lowlevellock.os)
 .eh_frame      0x0000000000003138       0x58 /teamspace/studios/this_studio/AI-Automated-Radiology-Report/glibc-2.34/build/libc_pic.a(scratch_buffer_set_array_size.os)
 .eh_frame      0x0000000000003190       0x30 /teamspace/studios/this_studio/AI-Automated-Radiology-Report/glibc-2.34/build/libc_pic.a(strchr.os)
 .eh_frame      0x00000000000031c0       0x30 /teamspace/studios/this_studio/AI-Automated-Radiology-Report/glibc-2.34/build/libc_pic.a(strcmp.os)
 .eh_frame      0x00000000000031f0       0x30 /teamspace/studios/this_studio/AI-Automated-Radiology-Report/glibc-2.34/build/libc_pic.a(strcspn.os)
 .eh_frame      0x0000000000003220       0x50 /teamspace/studios/this_studio/AI-Automated-Radiology-Report/glibc-2.34/build/libc_pic.a(strdup.os)
 .eh_frame      0x0000000000003270       0x30 /teamspace/studios/this_studio/AI-Automated-Radiology-Report/glibc-2.34/build/libc_pic.a(strlen.os)
 .eh_frame      0x00000000000032a0       0x30 /teamspace/studios/this_studio/AI-Automated-Radiology-Report/glibc-2.34/build/libc_pic.a(strnlen.os)
 .eh_frame      0x00000000000032d0       0x30 /teamspace/studios/this_studio/AI-Automated-Radiology-Report/glibc-2.34/build/libc_pic.a(strncmp.os)
 .eh_frame      0x0000000000003300       0x30 /teamspace/studios/this_studio/AI-Automated-Radiology-Report/glibc-2.34/build/libc_pic.a(memchr.os)
 .eh_frame      0x0000000000003330       0x30 /teamspace/studios/this_studio/AI-Automated-Radiology-Report/glibc-2.34/build/libc_pic.a(memcmp.os)
 .eh_frame      0x0000000000003360       0x30 /teamspace/studios/this_studio/AI-Automated-Radiology-Report/glibc-2.34/build/libc_pic.a(memmove.os)
 .eh_frame      0x0000000000003390       0x30 /teamspace/studios/this_studio/AI-Automated-Radiology-Report/glibc-2.34/build/libc_pic.a(memset.os)
 .eh_frame      0x00000000000033c0       0x30 /teamspace/studios/this_studio/AI-Automated-Radiology-Report/glibc-2.34/build/libc_pic.a(mempcpy.os)
 .eh_frame      0x00000000000033f0       0x30 /teamspace/studios/this_studio/AI-Automated-Radiology-Report/glibc-2.34/build/libc_pic.a(stpcpy.os)
 .eh_frame      0x0000000000003420       0x30 /teamspace/studios/this_studio/AI-Automated-Radiology-Report/glibc-2.34/build/libc_pic.a(memcpy.os)
 .eh_frame      0x0000000000003450       0x30 /teamspace/studios/this_studio/AI-Automated-Radiology-Report/glibc-2.34/build/libc_pic.a(rawmemchr.os)
 .eh_frame      0x0000000000003480       0x30 /teamspace/studios/this_studio/AI-Automated-Radiology-Report/glibc-2.34/build/libc_pic.a(strcmp-sse2.os)
 .eh_frame      0x00000000000034b0       0x30 /teamspace/studios/this_studio/AI-Automated-Radiology-Report/glibc-2.34/build/libc_pic.a(strcmp-sse2-unaligned.os)
 .eh_frame      0x00000000000034e0       0x30 /teamspace/studios/this_studio/AI-Automated-Radiology-Report/glibc-2.34/build/libc_pic.a(strcmp-ssse3.os)
 .eh_frame      0x0000000000003510       0x30 /teamspace/studios/this_studio/AI-Automated-Radiology-Report/glibc-2.34/build/libc_pic.a(strcmp-avx2.os)
 .eh_frame      0x0000000000003540       0x30 /teamspace/studios/this_studio/AI-Automated-Radiology-Report/glibc-2.34/build/libc_pic.a(strncmp-sse2.os)
 .eh_frame      0x0000000000003570       0x30 /teamspace/studios/this_studio/AI-Automated-Radiology-Report/glibc-2.34/build/libc_pic.a(strncmp-ssse3.os)
 .eh_frame      0x00000000000035a0       0x30 /teamspace/studios/this_studio/AI-Automated-Radiology-Report/glibc-2.34/build/libc_pic.a(strncmp-sse4_2.os)
 .eh_frame      0x00000000000035d0       0x30 /teamspace/studios/this_studio/AI-Automated-Radiology-Report/glibc-2.34/build/libc_pic.a(strncmp-avx2.os)
 .eh_frame      0x0000000000003600       0x30 /teamspace/studios/this_studio/AI-Automated-Radiology-Report/glibc-2.34/build/libc_pic.a(memchr-sse2.os)
 .eh_frame      0x0000000000003630       0x30 /teamspace/studios/this_studio/AI-Automated-Radiology-Report/glibc-2.34/build/libc_pic.a(rawmemchr-sse2.os)
 .eh_frame      0x0000000000003660       0x30 /teamspace/studios/this_studio/AI-Automated-Radiology-Report/glibc-2.34/build/libc_pic.a(memchr-avx2.os)
 .eh_frame      0x0000000000003690       0x30 /teamspace/studios/this_studio/AI-Automated-Radiology-Report/glibc-2.34/build/libc_pic.a(rawmemchr-avx2.os)
 .eh_frame      0x00000000000036c0       0x30 /teamspace/studios/this_studio/AI-Automated-Radiology-Report/glibc-2.34/build/libc_pic.a(memcmp-sse2.os)
 .eh_frame      0x00000000000036f0       0x30 /teamspace/studios/this_studio/AI-Automated-Radiology-Report/glibc-2.34/build/libc_pic.a(memcmp-avx2-movbe.os)
 .eh_frame      0x0000000000003720       0x30 /teamspace/studios/this_studio/AI-Automated-Radiology-Report/glibc-2.34/build/libc_pic.a(memcmp-sse4.os)
 .eh_frame      0x0000000000003750       0x68 /teamspace/studios/this_studio/AI-Automated-Radiology-Report/glibc-2.34/build/libc_pic.a(memcpy-ssse3.os)
 .eh_frame      0x00000000000037b8       0x40 /teamspace/studios/this_studio/AI-Automated-Radiology-Report/glibc-2.34/build/libc_pic.a(memmove-ssse3.os)
 .eh_frame      0x00000000000037f8       0x68 /teamspace/studios/this_studio/AI-Automated-Radiology-Report/glibc-2.34/build/libc_pic.a(memcpy-ssse3-back.os)
 .eh_frame      0x0000000000003860       0x40 /teamspace/studios/this_studio/AI-Automated-Radiology-Report/glibc-2.34/build/libc_pic.a(memmove-ssse3-back.os)
 .eh_frame      0x00000000000038a0       0x68 /teamspace/studios/this_studio/AI-Automated-Radiology-Report/glibc-2.34/build/libc_pic.a(memmove-avx512-no-vzeroupper.os)
 .eh_frame      0x0000000000003908       0x30 /teamspace/studios/this_studio/AI-Automated-Radiology-Report/glibc-2.34/build/libc_pic.a(strchr-sse2.os)
 .eh_frame      0x0000000000003938       0x30 /teamspace/studios/this_studio/AI-Automated-Radiology-Report/glibc-2.34/build/libc_pic.a(strchr-avx2.os)
 .eh_frame      0x0000000000003968       0x30 /teamspace/studios/this_studio/AI-Automated-Radiology-Report/glibc-2.34/build/libc_pic.a(strlen-sse2.os)
 .eh_frame      0x0000000000003998       0x30 /teamspace/studios/this_studio/AI-Automated-Radiology-Report/glibc-2.34/build/libc_pic.a(strnlen-sse2.os)
 .eh_frame      0x00000000000039c8       0x30 /teamspace/studios/this_studio/AI-Automated-Radiology-Report/glibc-2.34/build/libc_pic.a(strlen-avx2.os)
 .eh_frame      0x00000000000039f8       0x30 /teamspace/studios/this_studio/AI-Automated-Radiology-Report/glibc-2.34/build/libc_pic.a(strnlen-avx2.os)
 .eh_frame      0x0000000000003a28       0x30 /teamspace/studios/this_studio/AI-Automated-Radiology-Report/glibc-2.34/build/libc_pic.a(stpcpy-sse2.os)
 .eh_frame      0x0000000000003a58       0x30 /teamspace/studios/this_studio/AI-Automated-Radiology-Report/glibc-2.34/build/libc_pic.a(stpcpy-ssse3.os)
 .eh_frame      0x0000000000003a88       0x30 /teamspace/studios/this_studio/AI-Automated-Radiology-Report/glibc-2.34/build/libc_pic.a(stpcpy-sse2-unaligned.os)
 .eh_frame      0x0000000000003ab8       0x30 /teamspace/studios/this_studio/AI-Automated-Radiology-Report/glibc-2.34/build/libc_pic.a(stpcpy-avx2.os)
 .eh_frame      0x0000000000003ae8       0x30 /teamspace/studios/this_studio/AI-Automated-Radiology-Report/glibc-2.34/build/libc_pic.a(strchr-sse2-no-bsf.os)
 .eh_frame      0x0000000000003b18       0x30 /teamspace/studios/this_studio/AI-Automated-Radiology-Report/glibc-2.34/build/libc_pic.a(memcmp-ssse3.os)
 .eh_frame      0x0000000000003b48       0x38 /teamspace/studios/this_studio/AI-Automated-Radiology-Report/glibc-2.34/build/libc_pic.a(strcspn-sse2.os)
 .eh_frame      0x0000000000003b80       0x30 /teamspace/studios/this_studio/AI-Automated-Radiology-Report/glibc-2.34/build/libc_pic.a(strcspn-c.os)
 .eh_frame      0x0000000000003bb0       0x40 /teamspace/studios/this_studio/AI-Automated-Radiology-Report/glibc-2.34/build/libc_pic.a(memset-avx512-no-vzeroupper.os)
 .eh_frame      0x0000000000003bf0      0x108 /teamspace/studios/this_studio/AI-Automated-Radiology-Report/glibc-2.34/build/libc_pic.a(memmove-sse2-unaligned-erms.os)
 .eh_frame      0x0000000000003cf8       0xb8 /teamspace/studios/this_studio/AI-Automated-Radiology-Report/glibc-2.34/build/libc_pic.a(memmove-avx-unaligned-erms.os)
 .eh_frame      0x0000000000003db0       0xb8 /teamspace/studios/this_studio/AI-Automated-Radiology-Report/glibc-2.34/build/libc_pic.a(memmove-avx512-unaligned-erms.os)
 .eh_frame      0x0000000000003e68       0xd0 /teamspace/studios/this_studio/AI-Automated-Radiology-Report/glibc-2.34/build/libc_pic.a(memset-sse2-unaligned-erms.os)
 .eh_frame      0x0000000000003f38       0xa8 /teamspace/studios/this_studio/AI-Automated-Radiology-Report/glibc-2.34/build/libc_pic.a(memset-avx2-unaligned-erms.os)
 .eh_frame      0x0000000000003fe0       0xa8 /teamspace/studios/this_studio/AI-Automated-Radiology-Report/glibc-2.34/build/libc_pic.a(memset-avx512-unaligned-erms.os)
 .eh_frame      0x0000000000004088       0x30 /teamspace/studios/this_studio/AI-Automated-Radiology-Report/glibc-2.34/build/libc_pic.a(memchr-avx2-rtm.os)
 .eh_frame      0x00000000000040b8       0x30 /teamspace/studios/this_studio/AI-Automated-Radiology-Report/glibc-2.34/build/libc_pic.a(memcmp-avx2-movbe-rtm.os)
 .eh_frame      0x00000000000040e8       0xb8 /teamspace/studios/this_studio/AI-Automated-Radiology-Report/glibc-2.34/build/libc_pic.a(memmove-avx-unaligned-erms-rtm.os)
 .eh_frame      0x00000000000041a0       0xa8 /teamspace/studios/this_studio/AI-Automated-Radiology-Report/glibc-2.34/build/libc_pic.a(memset-avx2-unaligned-erms-rtm.os)
 .eh_frame      0x0000000000004248       0x30 /teamspace/studios/this_studio/AI-Automated-Radiology-Report/glibc-2.34/build/libc_pic.a(rawmemchr-avx2-rtm.os)
 .eh_frame      0x0000000000004278       0x30 /teamspace/studios/this_studio/AI-Automated-Radiology-Report/glibc-2.34/build/libc_pic.a(strchr-avx2-rtm.os)
 .eh_frame      0x00000000000042a8       0x30 /teamspace/studios/this_studio/AI-Automated-Radiology-Report/glibc-2.34/build/libc_pic.a(strcmp-avx2-rtm.os)
 .eh_frame      0x00000000000042d8       0x30 /teamspace/studios/this_studio/AI-Automated-Radiology-Report/glibc-2.34/build/libc_pic.a(stpcpy-avx2-rtm.os)
 .eh_frame      0x0000000000004308       0x30 /teamspace/studios/this_studio/AI-Automated-Radiology-Report/glibc-2.34/build/libc_pic.a(strlen-avx2-rtm.os)
 .eh_frame      0x0000000000004338       0x30 /teamspace/studios/this_studio/AI-Automated-Radiology-Report/glibc-2.34/build/libc_pic.a(strncmp-avx2-rtm.os)
 .eh_frame      0x0000000000004368       0x30 /teamspace/studios/this_studio/AI-Automated-Radiology-Report/glibc-2.34/build/libc_pic.a(strnlen-avx2-rtm.os)
 .eh_frame      0x0000000000004398       0x30 /teamspace/studios/this_studio/AI-Automated-Radiology-Report/glibc-2.34/build/libc_pic.a(memchr-evex.os)
 .eh_frame      0x00000000000043c8       0x30 /teamspace/studios/this_studio/AI-Automated-Radiology-Report/glibc-2.34/build/libc_pic.a(memcmp-evex-movbe.os)
 .eh_frame      0x00000000000043f8       0xb8 /teamspace/studios/this_studio/AI-Automated-Radiology-Report/glibc-2.34/build/libc_pic.a(memmove-evex-unaligned-erms.os)
 .eh_frame      0x00000000000044b0       0xa8 /teamspace/studios/this_studio/AI-Automated-Radiology-Report/glibc-2.34/build/libc_pic.a(memset-evex-unaligned-erms.os)
 .eh_frame      0x0000000000004558       0x30 /teamspace/studios/this_studio/AI-Automated-Radiology-Report/glibc-2.34/build/libc_pic.a(rawmemchr-evex.os)
 .eh_frame      0x0000000000004588       0x30 /teamspace/studios/this_studio/AI-Automated-Radiology-Report/glibc-2.34/build/libc_pic.a(stpcpy-evex.os)
 .eh_frame      0x00000000000045b8       0x30 /teamspace/studios/this_studio/AI-Automated-Radiology-Report/glibc-2.34/build/libc_pic.a(strchr-evex.os)
 .eh_frame      0x00000000000045e8       0x30 /teamspace/studios/this_studio/AI-Automated-Radiology-Report/glibc-2.34/build/libc_pic.a(strcmp-evex.os)
 .eh_frame      0x0000000000004618       0x30 /teamspace/studios/this_studio/AI-Automated-Radiology-Report/glibc-2.34/build/libc_pic.a(strlen-evex.os)
 .eh_frame      0x0000000000004648       0x30 /teamspace/studios/this_studio/AI-Automated-Radiology-Report/glibc-2.34/build/libc_pic.a(strncmp-evex.os)
 .eh_frame      0x0000000000004678       0x30 /teamspace/studios/this_studio/AI-Automated-Radiology-Report/glibc-2.34/build/libc_pic.a(strnlen-evex.os)
 .eh_frame      0x00000000000046a8       0x30 /teamspace/studios/this_studio/AI-Automated-Radiology-Report/glibc-2.34/build/libc_pic.a(memchr-evex-rtm.os)
 .eh_frame      0x00000000000046d8       0x30 /teamspace/studios/this_studio/AI-Automated-Radiology-Report/glibc-2.34/build/libc_pic.a(rawmemchr-evex-rtm.os)
 .eh_frame      0x0000000000004708       0x40 /teamspace/studios/this_studio/AI-Automated-Radiology-Report/glibc-2.34/build/libc_pic.a(cacheinfo.os)
 .eh_frame      0x0000000000004748       0x38 /teamspace/studios/this_studio/AI-Automated-Radiology-Report/glibc-2.34/build/libc_pic.a(closedir.os)
 .eh_frame      0x0000000000004780       0x50 /teamspace/studios/this_studio/AI-Automated-Radiology-Report/glibc-2.34/build/libc_pic.a(rewinddir.os)
 .eh_frame      0x00000000000047d0       0x70 /teamspace/studios/this_studio/AI-Automated-Radiology-Report/glibc-2.34/build/libc_pic.a(readdir64.os)
 .eh_frame      0x0000000000004840       0x50 /teamspace/studios/this_studio/AI-Automated-Radiology-Report/glibc-2.34/build/libc_pic.a(fdopendir.os)
 .eh_frame      0x0000000000004890       0x30 /teamspace/studios/this_studio/AI-Automated-Radiology-Report/glibc-2.34/build/libc_pic.a(uname.os)
 .eh_frame      0x00000000000048c0       0x30 /teamspace/studios/this_studio/AI-Automated-Radiology-Report/glibc-2.34/build/libc_pic.a(_exit.os)
 .eh_frame      0x00000000000048f0       0x30 /teamspace/studios/this_studio/AI-Automated-Radiology-Report/glibc-2.34/build/libc_pic.a(getpid.os)
 .eh_frame      0x0000000000004920       0x30 /teamspace/studios/this_studio/AI-Automated-Radiology-Report/glibc-2.34/build/libc_pic.a(stat64.os)
 .eh_frame      0x0000000000004950       0x30 /teamspace/studios/this_studio/AI-Automated-Radiology-Report/glibc-2.34/build/libc_pic.a(fstat64.os)
 .eh_frame      0x0000000000004980       0x30 /teamspace/studios/this_studio/AI-Automated-Radiology-Report/glibc-2.34/build/libc_pic.a(lstat64.os)
 .eh_frame      0x00000000000049b0       0x30 /teamspace/studios/this_studio/AI-Automated-Radiology-Report/glibc-2.34/build/libc_pic.a(fstatat64.os)
 .eh_frame      0x00000000000049e0       0x40 /teamspace/studios/this_studio/AI-Automated-Radiology-Report/glibc-2.34/build/libc_pic.a(openat64.os)
 .eh_frame      0x0000000000004a20       0x30 /teamspace/studios/this_studio/AI-Automated-Radiology-Report/glibc-2.34/build/libc_pic.a(lseek64.os)
 .eh_frame      0x0000000000004a50       0x30 /teamspace/studios/this_studio/AI-Automated-Radiology-Report/glibc-2.34/build/libc_pic.a(access.os)
 .eh_frame      0x0000000000004a80       0x30 /teamspace/studios/this_studio/AI-Automated-Radiology-Report/glibc-2.34/build/libc_pic.a(close_nocancel.os)
 .eh_frame      0x0000000000004ab0       0x48 /teamspace/studios/this_studio/AI-Automated-Radiology-Report/glibc-2.34/build/libc_pic.a(fcntl_nocancel.os)
 .eh_frame      0x0000000000004af8       0x30 /teamspace/studios/this_studio/AI-Automated-Radiology-Report/glibc-2.34/build/libc_pic.a(open64_nocancel.os)
 .eh_frame      0x0000000000004b28       0x30 /teamspace/studios/this_studio/AI-Automated-Radiology-Report/glibc-2.34/build/libc_pic.a(read_nocancel.os)
 .eh_frame      0x0000000000004b58       0x30 /teamspace/studios/this_studio/AI-Automated-Radiology-Report/glibc-2.34/build/libc_pic.a(pread64_nocancel.os)
 .eh_frame      0x0000000000004b88       0x30 /teamspace/studios/this_studio/AI-Automated-Radiology-Report/glibc-2.34/build/libc_pic.a(write_nocancel.os)
 .eh_frame      0x0000000000004bb8       0x48 /teamspace/studios/this_studio/AI-Automated-Radiology-Report/glibc-2.34/build/libc_pic.a(mmap64.os)
 .eh_frame      0x0000000000004c00       0x30 /teamspace/studios/this_studio/AI-Automated-Radiology-Report/glibc-2.34/build/libc_pic.a(munmap.os)
 .eh_frame      0x0000000000004c30       0x30 /teamspace/studios/this_studio/AI-Automated-Radiology-Report/glibc-2.34/build/libc_pic.a(mprotect.os)
 .eh_frame      0x0000000000004c60       0x80 /teamspace/studios/this_studio/AI-Automated-Radiology-Report/glibc-2.34/build/libc_pic.a(profil.os)
 .eh_frame      0x0000000000004ce0       0x30 /teamspace/studios/this_studio/AI-Automated-Radiology-Report/glibc-2.34/build/libc_pic.a(prof-freq.os)
 .eh_frame      0x0000000000004d10       0x30 /teamspace/studios/this_studio/AI-Automated-Radiology-Report/glibc-2.34/build/libc_pic.a(dl-addr-obj.os)
 .eh_frame      0x0000000000004d40       0x30 /teamspace/studios/this_studio/AI-Automated-Radiology-Report/glibc-2.34/build/libc_pic.a(sigaction.os)
 .eh_frame      0x0000000000004d70       0xc8 /teamspace/studios/this_studio/AI-Automated-Radiology-Report/glibc-2.34/build/libc_pic.a(libc_sigaction.os)
                                         0xd0 (size before relaxing)
 .eh_frame      0x0000000000004e38       0x30 /teamspace/studios/this_studio/AI-Automated-Radiology-Report/glibc-2.34/build/libc_pic.a(setitimer.os)
 .eh_frame      0x0000000000004e68       0x2c /teamspace/studios/this_studio/AI-Automated-Radiology-Report/glibc-2.34/build/libc_pic.a(getdents64.os)
                                         0x30 (size before relaxing)

.gcc_except_table
 *(.gcc_except_table)

.gnu_extab
 *(.gnu_extab*)

.exception_ranges
 *(.exception_ranges)

.eh_frame
 *(.eh_frame)

.gnu_extab
 *(.gnu_extab)

.gcc_except_table
 *(.gcc_except_table)

.exception_ranges
 *(.exception_ranges)

.tdata
 *(.tdata)

.tbss           0x0000000000000000        0x4
 *(.tbss)
 .tbss          0x0000000000000000        0x4 /teamspace/studios/this_studio/AI-Automated-Radiology-Report/glibc-2.34/build/libc_pic.a(errno.os)
                0x0000000000000000                errno
                0x0000000000000000                __libc_errno

.jcr
 *(.jcr)

.dynamic
 *(.dynamic)

.got
 *(.got)

.got.plt
 *(.got.plt)

.data           0x0000000000000000     0x1058
 *(.data)
 .data          0x0000000000000000        0x0 /teamspace/studios/this_studio/AI-Automated-Radiology-Report/glibc-2.34/build/elf/librtld.mapT.o
 .data          0x0000000000000000     0x1028 /teamspace/studios/this_studio/AI-Automated-Radiology-Report/glibc-2.34/build/elf/dl-allobjs.os
                0x0000000000000000                _rtld_global
                0x0000000000000000                _rtld_local
 .data          0x0000000000001028        0x0 /teamspace/studios/this_studio/AI-Automated-Radiology-Report/glibc-2.34/build/libc_pic.a(check_fds.os)
 .data          0x0000000000001028        0x0 /teamspace/studios/this_studio/AI-Automated-Radiology-Report/glibc-2.34/build/libc_pic.a(errno.os)
 .data          0x0000000000001028        0x0 /teamspace/studios/this_studio/AI-Automated-Radiology-Report/glibc-2.34/build/libc_pic.a(setjmp.os)
 .data          0x0000000000001028        0x0 /teamspace/studios/this_studio/AI-Automated-Radiology-Report/glibc-2.34/build/libc_pic.a(__longjmp.os)
 .data          0x0000000000001028        0x0 /teamspace/studios/this_studio/AI-Automated-Radiology-Report/glibc-2.34/build/libc_pic.a(lowlevellock.os)
 .data          0x0000000000001028        0x0 /teamspace/studios/this_studio/AI-Automated-Radiology-Report/glibc-2.34/build/libc_pic.a(scratch_buffer_set_array_size.os)
 .data          0x0000000000001028        0x0 /teamspace/studios/this_studio/AI-Automated-Radiology-Report/glibc-2.34/build/libc_pic.a(strchr.os)
 .data          0x0000000000001028        0x0 /teamspace/studios/this_studio/AI-Automated-Radiology-Report/glibc-2.34/build/libc_pic.a(strcmp.os)
 .data          0x0000000000001028        0x0 /teamspace/studios/this_studio/AI-Automated-Radiology-Report/glibc-2.34/build/libc_pic.a(strcspn.os)
 .data          0x0000000000001028        0x0 /teamspace/studios/this_studio/AI-Automated-Radiology-Report/glibc-2.34/build/libc_pic.a(strdup.os)
 .data          0x0000000000001028        0x0 /teamspace/studios/this_studio/AI-Automated-Radiology-Report/glibc-2.34/build/libc_pic.a(strlen.os)
 .data          0x0000000000001028        0x0 /teamspace/studios/this_studio/AI-Automated-Radiology-Report/glibc-2.34/build/libc_pic.a(strnlen.os)
 .data          0x0000000000001028        0x0 /teamspace/studios/this_studio/AI-Automated-Radiology-Report/glibc-2.34/build/libc_pic.a(strncmp.os)
 .data          0x0000000000001028        0x0 /teamspace/studios/this_studio/AI-Automated-Radiology-Report/glibc-2.34/build/libc_pic.a(memchr.os)
 .data          0x0000000000001028        0x0 /teamspace/studios/this_studio/AI-Automated-Radiology-Report/glibc-2.34/build/libc_pic.a(memcmp.os)
 .data          0x0000000000001028        0x0 /teamspace/studios/this_studio/AI-Automated-Radiology-Report/glibc-2.34/build/libc_pic.a(memmove.os)
 .data          0x0000000000001028        0x0 /teamspace/studios/this_studio/AI-Automated-Radiology-Report/glibc-2.34/build/libc_pic.a(memset.os)
 .data          0x0000000000001028        0x0 /teamspace/studios/this_studio/AI-Automated-Radiology-Report/glibc-2.34/build/libc_pic.a(mempcpy.os)
 .data          0x0000000000001028        0x0 /teamspace/studios/this_studio/AI-Automated-Radiology-Report/glibc-2.34/build/libc_pic.a(stpcpy.os)
 .data          0x0000000000001028        0x0 /teamspace/studios/this_studio/AI-Automated-Radiology-Report/glibc-2.34/build/libc_pic.a(memcpy.os)
 .data          0x0000000000001028        0x0 /teamspace/studios/this_studio/AI-Automated-Radiology-Report/glibc-2.34/build/libc_pic.a(rawmemchr.os)
 .data          0x0000000000001028        0x0 /teamspace/studios/this_studio/AI-Automated-Radiology-Report/glibc-2.34/build/libc_pic.a(strcmp-sse2.os)
 .data          0x0000000000001028        0x0 /teamspace/studios/this_studio/AI-Automated-Radiology-Report/glibc-2.34/build/libc_pic.a(strcmp-sse2-unaligned.os)
 .data          0x0000000000001028        0x0 /teamspace/studios/this_studio/AI-Automated-Radiology-Report/glibc-2.34/build/libc_pic.a(strcmp-ssse3.os)
 .data          0x0000000000001028        0x0 /teamspace/studios/this_studio/AI-Automated-Radiology-Report/glibc-2.34/build/libc_pic.a(strcmp-avx2.os)
 .data          0x0000000000001028        0x0 /teamspace/studios/this_studio/AI-Automated-Radiology-Report/glibc-2.34/build/libc_pic.a(strncmp-sse2.os)
 .data          0x0000000000001028        0x0 /teamspace/studios/this_studio/AI-Automated-Radiology-Report/glibc-2.34/build/libc_pic.a(strncmp-ssse3.os)
 .data          0x0000000000001028        0x0 /teamspace/studios/this_studio/AI-Automated-Radiology-Report/glibc-2.34/build/libc_pic.a(strncmp-sse4_2.os)
 .data          0x0000000000001028        0x0 /teamspace/studios/this_studio/AI-Automated-Radiology-Report/glibc-2.34/build/libc_pic.a(strncmp-avx2.os)
 .data          0x0000000000001028        0x0 /teamspace/studios/this_studio/AI-Automated-Radiology-Report/glibc-2.34/build/libc_pic.a(memchr-sse2.os)
 .data          0x0000000000001028        0x0 /teamspace/studios/this_studio/AI-Automated-Radiology-Report/glibc-2.34/build/libc_pic.a(rawmemchr-sse2.os)
 .data          0x0000000000001028        0x0 /teamspace/studios/this_studio/AI-Automated-Radiology-Report/glibc-2.34/build/libc_pic.a(memchr-avx2.os)
 .data          0x0000000000001028        0x0 /teamspace/studios/this_studio/AI-Automated-Radiology-Report/glibc-2.34/build/libc_pic.a(rawmemchr-avx2.os)
 .data          0x0000000000001028        0x0 /teamspace/studios/this_studio/AI-Automated-Radiology-Report/glibc-2.34/build/libc_pic.a(memcmp-sse2.os)
 .data          0x0000000000001028        0x0 /teamspace/studios/this_studio/AI-Automated-Radiology-Report/glibc-2.34/build/libc_pic.a(memcmp-avx2-movbe.os)
 .data          0x0000000000001028        0x0 /teamspace/studios/this_studio/AI-Automated-Radiology-Report/glibc-2.34/build/libc_pic.a(memcmp-sse4.os)
 .data          0x0000000000001028        0x0 /teamspace/studios/this_studio/AI-Automated-Radiology-Report/glibc-2.34/build/libc_pic.a(memcpy-ssse3.os)
 .data          0x0000000000001028        0x0 /teamspace/studios/this_studio/AI-Automated-Radiology-Report/glibc-2.34/build/libc_pic.a(memmove-ssse3.os)
 .data          0x0000000000001028        0x0 /teamspace/studios/this_studio/AI-Automated-Radiology-Report/glibc-2.34/build/libc_pic.a(memcpy-ssse3-back.os)
 .data          0x0000000000001028        0x0 /teamspace/studios/this_studio/AI-Automated-Radiology-Report/glibc-2.34/build/libc_pic.a(memmove-ssse3-back.os)
 .data          0x0000000000001028        0x0 /teamspace/studios/this_studio/AI-Automated-Radiology-Report/glibc-2.34/build/libc_pic.a(memmove-avx512-no-vzeroupper.os)
 .data          0x0000000000001028        0x0 /teamspace/studios/this_studio/AI-Automated-Radiology-Report/glibc-2.34/build/libc_pic.a(strchr-sse2.os)
 .data          0x0000000000001028        0x0 /teamspace/studios/this_studio/AI-Automated-Radiology-Report/glibc-2.34/build/libc_pic.a(strchr-avx2.os)
 .data          0x0000000000001028        0x0 /teamspace/studios/this_studio/AI-Automated-Radiology-Report/glibc-2.34/build/libc_pic.a(strlen-sse2.os)
 .data          0x0000000000001028        0x0 /teamspace/studios/this_studio/AI-Automated-Radiology-Report/glibc-2.34/build/libc_pic.a(strnlen-sse2.os)
 .data          0x0000000000001028        0x0 /teamspace/studios/this_studio/AI-Automated-Radiology-Report/glibc-2.34/build/libc_pic.a(strlen-avx2.os)
 .data          0x0000000000001028        0x0 /teamspace/studios/this_studio/AI-Automated-Radiology-Report/glibc-2.34/build/libc_pic.a(strnlen-avx2.os)
 .data          0x0000000000001028        0x0 /teamspace/studios/this_studio/AI-Automated-Radiology-Report/glibc-2.34/build/libc_pic.a(stpcpy-sse2.os)
 .data          0x0000000000001028        0x0 /teamspace/studios/this_studio/AI-Automated-Radiology-Report/glibc-2.34/build/libc_pic.a(stpcpy-ssse3.os)
 .data          0x0000000000001028        0x0 /teamspace/studios/this_studio/AI-Automated-Radiology-Report/glibc-2.34/build/libc_pic.a(stpcpy-sse2-unaligned.os)
 .data          0x0000000000001028        0x0 /teamspace/studios/this_studio/AI-Automated-Radiology-Report/glibc-2.34/build/libc_pic.a(stpcpy-avx2.os)
 .data          0x0000000000001028        0x0 /teamspace/studios/this_studio/AI-Automated-Radiology-Report/glibc-2.34/build/libc_pic.a(strchr-sse2-no-bsf.os)
 .data          0x0000000000001028        0x0 /teamspace/studios/this_studio/AI-Automated-Radiology-Report/glibc-2.34/build/libc_pic.a(memcmp-ssse3.os)
 .data          0x0000000000001028        0x0 /teamspace/studios/this_studio/AI-Automated-Radiology-Report/glibc-2.34/build/libc_pic.a(strcspn-sse2.os)
 .data          0x0000000000001028        0x0 /teamspace/studios/this_studio/AI-Automated-Radiology-Report/glibc-2.34/build/libc_pic.a(strcspn-c.os)
 .data          0x0000000000001028        0x0 /teamspace/studios/this_studio/AI-Automated-Radiology-Report/glibc-2.34/build/libc_pic.a(varshift.os)
 .data          0x0000000000001028        0x0 /teamspace/studios/this_studio/AI-Automated-Radiology-Report/glibc-2.34/build/libc_pic.a(memset-avx512-no-vzeroupper.os)
 .data          0x0000000000001028        0x0 /teamspace/studios/this_studio/AI-Automated-Radiology-Report/glibc-2.34/build/libc_pic.a(memmove-sse2-unaligned-erms.os)
 .data          0x0000000000001028        0x0 /teamspace/studios/this_studio/AI-Automated-Radiology-Report/glibc-2.34/build/libc_pic.a(memmove-avx-unaligned-erms.os)
 .data          0x0000000000001028        0x0 /teamspace/studios/this_studio/AI-Automated-Radiology-Report/glibc-2.34/build/libc_pic.a(memmove-avx512-unaligned-erms.os)
 .data          0x0000000000001028        0x0 /teamspace/studios/this_studio/AI-Automated-Radiology-Report/glibc-2.34/build/libc_pic.a(memset-sse2-unaligned-erms.os)
 .data          0x0000000000001028        0x0 /teamspace/studios/this_studio/AI-Automated-Radiology-Report/glibc-2.34/build/libc_pic.a(memset-avx2-unaligned-erms.os)
 .data          0x0000000000001028        0x0 /teamspace/studios/this_studio/AI-Automated-Radiology-Report/glibc-2.34/build/libc_pic.a(memset-avx512-unaligned-erms.os)
 .data          0x0000000000001028        0x0 /teamspace/studios/this_studio/AI-Automated-Radiology-Report/glibc-2.34/build/libc_pic.a(memchr-avx2-rtm.os)
 .data          0x0000000000001028        0x0 /teamspace/studios/this_studio/AI-Automated-Radiology-Report/glibc-2.34/build/libc_pic.a(memcmp-avx2-movbe-rtm.os)
 .data          0x0000000000001028        0x0 /teamspace/studios/this_studio/AI-Automated-Radiology-Report/glibc-2.34/build/libc_pic.a(memmove-avx-unaligned-erms-rtm.os)
 .data          0x0000000000001028        0x0 /teamspace/studios/this_studio/AI-Automated-Radiology-Report/glibc-2.34/build/libc_pic.a(memset-avx2-unaligned-erms-rtm.os)
 .data          0x0000000000001028        0x0 /teamspace/studios/this_studio/AI-Automated-Radiology-Report/glibc-2.34/build/libc_pic.a(rawmemchr-avx2-rtm.os)
 .data          0x0000000000001028        0x0 /teamspace/studios/this_studio/AI-Automated-Radiology-Report/glibc-2.34/build/libc_pic.a(strchr-avx2-rtm.os)
 .data          0x0000000000001028        0x0 /teamspace/studios/this_studio/AI-Automated-Radiology-Report/glibc-2.34/build/libc_pic.a(strcmp-avx2-rtm.os)
 .data          0x0000000000001028        0x0 /teamspace/studios/this_studio/AI-Automated-Radiology-Report/glibc-2.34/build/libc_pic.a(stpcpy-avx2-rtm.os)
 .data          0x0000000000001028        0x0 /teamspace/studios/this_studio/AI-Automated-Radiology-Report/glibc-2.34/build/libc_pic.a(strlen-avx2-rtm.os)
 .data          0x0000000000001028        0x0 /teamspace/studios/this_studio/AI-Automated-Radiology-Report/glibc-2.34/build/libc_pic.a(strncmp-avx2-rtm.os)
 .data          0x0000000000001028        0x0 /teamspace/studios/this_studio/AI-Automated-Radiology-Report/glibc-2.34/build/libc_pic.a(strnlen-avx2-rtm.os)
 .data          0x0000000000001028        0x0 /teamspace/studios/this_studio/AI-Automated-Radiology-Report/glibc-2.34/build/libc_pic.a(memchr-evex.os)
 .data          0x0000000000001028        0x0 /teamspace/studios/this_studio/AI-Automated-Radiology-Report/glibc-2.34/build/libc_pic.a(memcmp-evex-movbe.os)
 .data          0x0000000000001028        0x0 /teamspace/studios/this_studio/AI-Automated-Radiology-Report/glibc-2.34/build/libc_pic.a(memmove-evex-unaligned-erms.os)
 .data          0x0000000000001028        0x0 /teamspace/studios/this_studio/AI-Automated-Radiology-Report/glibc-2.34/build/libc_pic.a(memset-evex-unaligned-erms.os)
 .data          0x0000000000001028        0x0 /teamspace/studios/this_studio/AI-Automated-Radiology-Report/glibc-2.34/build/libc_pic.a(rawmemchr-evex.os)
 .data          0x0000000000001028        0x0 /teamspace/studios/this_studio/AI-Automated-Radiology-Report/glibc-2.34/build/libc_pic.a(stpcpy-evex.os)
 .data          0x0000000000001028        0x0 /teamspace/studios/this_studio/AI-Automated-Radiology-Report/glibc-2.34/build/libc_pic.a(strchr-evex.os)
 .data          0x0000000000001028        0x0 /teamspace/studios/this_studio/AI-Automated-Radiology-Report/glibc-2.34/build/libc_pic.a(strcmp-evex.os)
 .data          0x0000000000001028        0x0 /teamspace/studios/this_studio/AI-Automated-Radiology-Report/glibc-2.34/build/libc_pic.a(strlen-evex.os)
 .data          0x0000000000001028        0x0 /teamspace/studios/this_studio/AI-Automated-Radiology-Report/glibc-2.34/build/libc_pic.a(strncmp-evex.os)
 .data          0x0000000000001028        0x0 /teamspace/studios/this_studio/AI-Automated-Radiology-Report/glibc-2.34/build/libc_pic.a(strnlen-evex.os)
 .data          0x0000000000001028        0x0 /teamspace/studios/this_studio/AI-Automated-Radiology-Report/glibc-2.34/build/libc_pic.a(memchr-evex-rtm.os)
 .data          0x0000000000001028        0x0 /teamspace/studios/this_studio/AI-Automated-Radiology-Report/glibc-2.34/build/libc_pic.a(rawmemchr-evex-rtm.os)
 .data          0x0000000000001028       0x30 /teamspace/studios/this_studio/AI-Automated-Radiology-Report/glibc-2.34/build/libc_pic.a(cacheinfo.os)
                0x0000000000001028                __x86_rep_stosb_threshold
                0x0000000000001030                __x86_rep_movsb_threshold
                0x0000000000001038                __x86_shared_cache_size
                0x0000000000001040                __x86_shared_cache_size_half
                0x0000000000001048                __x86_data_cache_size
                0x0000000000001050                __x86_data_cache_size_half
 .data          0x0000000000001058        0x0 /teamspace/studios/this_studio/AI-Automated-Radiology-Report/glibc-2.34/build/libc_pic.a(closedir.os)
 .data          0x0000000000001058        0x0 /teamspace/studios/this_studio/AI-Automated-Radiology-Report/glibc-2.34/build/libc_pic.a(rewinddir.os)
 .data          0x0000000000001058        0x0 /teamspace/studios/this_studio/AI-Automated-Radiology-Report/glibc-2.34/build/libc_pic.a(readdir64.os)
 .data          0x0000000000001058        0x0 /teamspace/studios/this_studio/AI-Automated-Radiology-Report/glibc-2.34/build/libc_pic.a(fdopendir.os)
 .data          0x0000000000001058        0x0 /teamspace/studios/this_studio/AI-Automated-Radiology-Report/glibc-2.34/build/libc_pic.a(uname.os)
 .data          0x0000000000001058        0x0 /teamspace/studios/this_studio/AI-Automated-Radiology-Report/glibc-2.34/build/libc_pic.a(_exit.os)
 .data          0x0000000000001058        0x0 /teamspace/studios/this_studio/AI-Automated-Radiology-Report/glibc-2.34/build/libc_pic.a(getpid.os)
 .data          0x0000000000001058        0x0 /teamspace/studios/this_studio/AI-Automated-Radiology-Report/glibc-2.34/build/libc_pic.a(environ.os)
 .data          0x0000000000001058        0x0 /teamspace/studios/this_studio/AI-Automated-Radiology-Report/glibc-2.34/build/libc_pic.a(stat64.os)
 .data          0x0000000000001058        0x0 /teamspace/studios/this_studio/AI-Automated-Radiology-Report/glibc-2.34/build/libc_pic.a(fstat64.os)
 .data          0x0000000000001058        0x0 /teamspace/studios/this_studio/AI-Automated-Radiology-Report/glibc-2.34/build/libc_pic.a(lstat64.os)
 .data          0x0000000000001058        0x0 /teamspace/studios/this_studio/AI-Automated-Radiology-Report/glibc-2.34/build/libc_pic.a(fstatat64.os)
 .data          0x0000000000001058        0x0 /teamspace/studios/this_studio/AI-Automated-Radiology-Report/glibc-2.34/build/libc_pic.a(openat64.os)
 .data          0x0000000000001058        0x0 /teamspace/studios/this_studio/AI-Automated-Radiology-Report/glibc-2.34/build/libc_pic.a(lseek64.os)
 .data          0x0000000000001058        0x0 /teamspace/studios/this_studio/AI-Automated-Radiology-Report/glibc-2.34/build/libc_pic.a(access.os)
 .data          0x0000000000001058        0x0 /teamspace/studios/this_studio/AI-Automated-Radiology-Report/glibc-2.34/build/libc_pic.a(close_nocancel.os)
 .data          0x0000000000001058        0x0 /teamspace/studios/this_studio/AI-Automated-Radiology-Report/glibc-2.34/build/libc_pic.a(fcntl_nocancel.os)
 .data          0x0000000000001058        0x0 /teamspace/studios/this_studio/AI-Automated-Radiology-Report/glibc-2.34/build/libc_pic.a(open64_nocancel.os)
 .data          0x0000000000001058        0x0 /teamspace/studios/this_studio/AI-Automated-Radiology-Report/glibc-2.34/build/libc_pic.a(read_nocancel.os)
 .data          0x0000000000001058        0x0 /teamspace/studios/this_studio/AI-Automated-Radiology-Report/glibc-2.34/build/libc_pic.a(pread64_nocancel.os)
 .data          0x0000000000001058        0x0 /teamspace/studios/this_studio/AI-Automated-Radiology-Report/glibc-2.34/build/libc_pic.a(write_nocancel.os)
 .data          0x0000000000001058        0x0 /teamspace/studios/this_studio/AI-Automated-Radiology-Report/glibc-2.34/build/libc_pic.a(mmap64.os)
 .data          0x0000000000001058        0x0 /teamspace/studios/this_studio/AI-Automated-Radiology-Report/glibc-2.34/build/libc_pic.a(munmap.os)
 .data          0x0000000000001058        0x0 /teamspace/studios/this_studio/AI-Automated-Radiology-Report/glibc-2.34/build/libc_pic.a(mprotect.os)
 .data          0x0000000000001058        0x0 /teamspace/studios/this_studio/AI-Automated-Radiology-Report/glibc-2.34/build/libc_pic.a(profil.os)
 .data          0x0000000000001058        0x0 /teamspace/studios/this_studio/AI-Automated-Radiology-Report/glibc-2.34/build/libc_pic.a(prof-freq.os)
 .data          0x0000000000001058        0x0 /teamspace/studios/this_studio/AI-Automated-Radiology-Report/glibc-2.34/build/libc_pic.a(dl-addr-obj.os)
 .data          0x0000000000001058        0x0 /teamspace/studios/this_studio/AI-Automated-Radiology-Report/glibc-2.34/build/libc_pic.a(sigaction.os)
 .data          0x0000000000001058        0x0 /teamspace/studios/this_studio/AI-Automated-Radiology-Report/glibc-2.34/build/libc_pic.a(libc_sigaction.os)
 .data          0x0000000000001058        0x0 /teamspace/studios/this_studio/AI-Automated-Radiology-Report/glibc-2.34/build/libc_pic.a(setitimer.os)
 .data          0x0000000000001058        0x0 /teamspace/studios/this_studio/AI-Automated-Radiology-Report/glibc-2.34/build/libc_pic.a(getdents64.os)

.data.rel.ro    0x0000000000000000     0x12f8
 .data.rel.ro   0x0000000000000000     0x12f0 /teamspace/studios/this_studio/AI-Automated-Radiology-Report/glibc-2.34/build/elf/dl-allobjs.os
                0x0000000000000090                __pointer_chk_guard_local
                0x0000000000000098                _dl_skip_args
                0x00000000000000a0                __GI__dl_argv
                0x00000000000000a0                _dl_argv
                0x00000000000000a8                _dl_argc
                0x00000000000000c0                _rtld_global_ro
                0x00000000000000c0                _rtld_local_ro
                0x0000000000000450                __rtld_search_dirs
                0x0000000000000480                __rtld_env_path_list
                0x0000000000000490                __stack_prot
                0x00000000000012a0                __x86_cpu_features_p
                0x00000000000012a8                _dl_random
                0x00000000000012b0                __libc_stack_end
                0x00000000000012b0                __GI___libc_stack_end
                0x00000000000012b8                __GI___libc_enable_secure
                0x00000000000012b8                __libc_enable_secure
                0x00000000000012c0                __rtld_realloc
                0x00000000000012c8                __rtld_malloc
                0x00000000000012d0                __rtld_free
                0x00000000000012d8                __rtld_calloc
                0x00000000000012e0                ___rtld_mutex_unlock
                0x00000000000012e8                ___rtld_mutex_lock
 .data.rel.ro   0x00000000000012f0        0x8 /teamspace/studios/this_studio/AI-Automated-Radiology-Report/glibc-2.34/build/libc_pic.a(cacheinfo.os)
                0x00000000000012f0                __x86_cacheinfo_p

.data1
 *(.data1)

.bss            0x0000000000000000      0x280
 *(.bss)
 .bss           0x0000000000000000        0x0 /teamspace/studios/this_studio/AI-Automated-Radiology-Report/glibc-2.34/build/elf/librtld.mapT.o
 .bss           0x0000000000000000      0x168 /teamspace/studios/this_studio/AI-Automated-Radiology-Report/glibc-2.34/build/elf/dl-allobjs.os
                0x0000000000000080                _r_debug
                0x00000000000000f4                __nptl_initial_report_events
                0x00000000000000f4                __GI___nptl_initial_report_events
                0x0000000000000150                _dl_hwcaps_priorities_length
                0x0000000000000158                _dl_hwcaps_priorities
                0x0000000000000160                __curbrk
 .bss           0x0000000000000168        0x0 /teamspace/studios/this_studio/AI-Automated-Radiology-Report/glibc-2.34/build/libc_pic.a(check_fds.os)
 .bss           0x0000000000000168        0x0 /teamspace/studios/this_studio/AI-Automated-Radiology-Report/glibc-2.34/build/libc_pic.a(errno.os)
 .bss           0x0000000000000168        0x0 /teamspace/studios/this_studio/AI-Automated-Radiology-Report/glibc-2.34/build/libc_pic.a(setjmp.os)
 .bss           0x0000000000000168        0x0 /teamspace/studios/this_studio/AI-Automated-Radiology-Report/glibc-2.34/build/libc_pic.a(__longjmp.os)
 .bss           0x0000000000000168        0x4 /teamspace/studios/this_studio/AI-Automated-Radiology-Report/glibc-2.34/build/libc_pic.a(lowlevellock.os)
                0x0000000000000168                __GI___pthread_force_elision
                0x0000000000000168                __pthread_force_elision
 .bss           0x000000000000016c        0x0 /teamspace/studios/this_studio/AI-Automated-Radiology-Report/glibc-2.34/build/libc_pic.a(scratch_buffer_set_array_size.os)
 .bss           0x000000000000016c        0x0 /teamspace/studios/this_studio/AI-Automated-Radiology-Report/glibc-2.34/build/libc_pic.a(strchr.os)
 .bss           0x000000000000016c        0x0 /teamspace/studios/this_studio/AI-Automated-Radiology-Report/glibc-2.34/build/libc_pic.a(strcmp.os)
 .bss           0x000000000000016c        0x0 /teamspace/studios/this_studio/AI-Automated-Radiology-Report/glibc-2.34/build/libc_pic.a(strcspn.os)
 .bss           0x000000000000016c        0x0 /teamspace/studios/this_studio/AI-Automated-Radiology-Report/glibc-2.34/build/libc_pic.a(strdup.os)
 .bss           0x000000000000016c        0x0 /teamspace/studios/this_studio/AI-Automated-Radiology-Report/glibc-2.34/build/libc_pic.a(strlen.os)
 .bss           0x000000000000016c        0x0 /teamspace/studios/this_studio/AI-Automated-Radiology-Report/glibc-2.34/build/libc_pic.a(strnlen.os)
 .bss           0x000000000000016c        0x0 /teamspace/studios/this_studio/AI-Automated-Radiology-Report/glibc-2.34/build/libc_pic.a(strncmp.os)
 .bss           0x000000000000016c        0x0 /teamspace/studios/this_studio/AI-Automated-Radiology-Report/glibc-2.34/build/libc_pic.a(memchr.os)
 .bss           0x000000000000016c        0x0 /teamspace/studios/this_studio/AI-Automated-Radiology-Report/glibc-2.34/build/libc_pic.a(memcmp.os)
 .bss           0x000000000000016c        0x0 /teamspace/studios/this_studio/AI-Automated-Radiology-Report/glibc-2.34/build/libc_pic.a(memmove.os)
 .bss           0x000000000000016c        0x0 /teamspace/studios/this_studio/AI-Automated-Radiology-Report/glibc-2.34/build/libc_pic.a(memset.os)
 .bss           0x000000000000016c        0x0 /teamspace/studios/this_studio/AI-Automated-Radiology-Report/glibc-2.34/build/libc_pic.a(mempcpy.os)
 .bss           0x000000000000016c        0x0 /teamspace/studios/this_studio/AI-Automated-Radiology-Report/glibc-2.34/build/libc_pic.a(stpcpy.os)
 .bss           0x000000000000016c        0x0 /teamspace/studios/this_studio/AI-Automated-Radiology-Report/glibc-2.34/build/libc_pic.a(memcpy.os)
 .bss           0x000000000000016c        0x0 /teamspace/studios/this_studio/AI-Automated-Radiology-Report/glibc-2.34/build/libc_pic.a(rawmemchr.os)
 .bss           0x000000000000016c        0x0 /teamspace/studios/this_studio/AI-Automated-Radiology-Report/glibc-2.34/build/libc_pic.a(strcmp-sse2.os)
 .bss           0x000000000000016c        0x0 /teamspace/studios/this_studio/AI-Automated-Radiology-Report/glibc-2.34/build/libc_pic.a(strcmp-sse2-unaligned.os)
 .bss           0x000000000000016c        0x0 /teamspace/studios/this_studio/AI-Automated-Radiology-Report/glibc-2.34/build/libc_pic.a(strcmp-ssse3.os)
 .bss           0x000000000000016c        0x0 /teamspace/studios/this_studio/AI-Automated-Radiology-Report/glibc-2.34/build/libc_pic.a(strcmp-avx2.os)
 .bss           0x000000000000016c        0x0 /teamspace/studios/this_studio/AI-Automated-Radiology-Report/glibc-2.34/build/libc_pic.a(strncmp-sse2.os)
 .bss           0x000000000000016c        0x0 /teamspace/studios/this_studio/AI-Automated-Radiology-Report/glibc-2.34/build/libc_pic.a(strncmp-ssse3.os)
 .bss           0x000000000000016c        0x0 /teamspace/studios/this_studio/AI-Automated-Radiology-Report/glibc-2.34/build/libc_pic.a(strncmp-sse4_2.os)
 .bss           0x000000000000016c        0x0 /teamspace/studios/this_studio/AI-Automated-Radiology-Report/glibc-2.34/build/libc_pic.a(strncmp-avx2.os)
 .bss           0x000000000000016c        0x0 /teamspace/studios/this_studio/AI-Automated-Radiology-Report/glibc-2.34/build/libc_pic.a(memchr-sse2.os)
 .bss           0x000000000000016c        0x0 /teamspace/studios/this_studio/AI-Automated-Radiology-Report/glibc-2.34/build/libc_pic.a(rawmemchr-sse2.os)
 .bss           0x000000000000016c        0x0 /teamspace/studios/this_studio/AI-Automated-Radiology-Report/glibc-2.34/build/libc_pic.a(memchr-avx2.os)
 .bss           0x000000000000016c        0x0 /teamspace/studios/this_studio/AI-Automated-Radiology-Report/glibc-2.34/build/libc_pic.a(rawmemchr-avx2.os)
 .bss           0x000000000000016c        0x0 /teamspace/studios/this_studio/AI-Automated-Radiology-Report/glibc-2.34/build/libc_pic.a(memcmp-sse2.os)
 .bss           0x000000000000016c        0x0 /teamspace/studios/this_studio/AI-Automated-Radiology-Report/glibc-2.34/build/libc_pic.a(memcmp-avx2-movbe.os)
 .bss           0x000000000000016c        0x0 /teamspace/studios/this_studio/AI-Automated-Radiology-Report/glibc-2.34/build/libc_pic.a(memcmp-sse4.os)
 .bss           0x000000000000016c        0x0 /teamspace/studios/this_studio/AI-Automated-Radiology-Report/glibc-2.34/build/libc_pic.a(memcpy-ssse3.os)
 .bss           0x000000000000016c        0x0 /teamspace/studios/this_studio/AI-Automated-Radiology-Report/glibc-2.34/build/libc_pic.a(memmove-ssse3.os)
 .bss           0x000000000000016c        0x0 /teamspace/studios/this_studio/AI-Automated-Radiology-Report/glibc-2.34/build/libc_pic.a(memcpy-ssse3-back.os)
 .bss           0x000000000000016c        0x0 /teamspace/studios/this_studio/AI-Automated-Radiology-Report/glibc-2.34/build/libc_pic.a(memmove-ssse3-back.os)
 .bss           0x000000000000016c        0x0 /teamspace/studios/this_studio/AI-Automated-Radiology-Report/glibc-2.34/build/libc_pic.a(memmove-avx512-no-vzeroupper.os)
 .bss           0x000000000000016c        0x0 /teamspace/studios/this_studio/AI-Automated-Radiology-Report/glibc-2.34/build/libc_pic.a(strchr-sse2.os)
 .bss           0x000000000000016c        0x0 /teamspace/studios/this_studio/AI-Automated-Radiology-Report/glibc-2.34/build/libc_pic.a(strchr-avx2.os)
 .bss           0x000000000000016c        0x0 /teamspace/studios/this_studio/AI-Automated-Radiology-Report/glibc-2.34/build/libc_pic.a(strlen-sse2.os)
 .bss           0x000000000000016c        0x0 /teamspace/studios/this_studio/AI-Automated-Radiology-Report/glibc-2.34/build/libc_pic.a(strnlen-sse2.os)
 .bss           0x000000000000016c        0x0 /teamspace/studios/this_studio/AI-Automated-Radiology-Report/glibc-2.34/build/libc_pic.a(strlen-avx2.os)
 .bss           0x000000000000016c        0x0 /teamspace/studios/this_studio/AI-Automated-Radiology-Report/glibc-2.34/build/libc_pic.a(strnlen-avx2.os)
 .bss           0x000000000000016c        0x0 /teamspace/studios/this_studio/AI-Automated-Radiology-Report/glibc-2.34/build/libc_pic.a(stpcpy-sse2.os)
 .bss           0x000000000000016c        0x0 /teamspace/studios/this_studio/AI-Automated-Radiology-Report/glibc-2.34/build/libc_pic.a(stpcpy-ssse3.os)
 .bss           0x000000000000016c        0x0 /teamspace/studios/this_studio/AI-Automated-Radiology-Report/glibc-2.34/build/libc_pic.a(stpcpy-sse2-unaligned.os)
 .bss           0x000000000000016c        0x0 /teamspace/studios/this_studio/AI-Automated-Radiology-Report/glibc-2.34/build/libc_pic.a(stpcpy-avx2.os)
 .bss           0x000000000000016c        0x0 /teamspace/studios/this_studio/AI-Automated-Radiology-Report/glibc-2.34/build/libc_pic.a(strchr-sse2-no-bsf.os)
 .bss           0x000000000000016c        0x0 /teamspace/studios/this_studio/AI-Automated-Radiology-Report/glibc-2.34/build/libc_pic.a(memcmp-ssse3.os)
 .bss           0x000000000000016c        0x0 /teamspace/studios/this_studio/AI-Automated-Radiology-Report/glibc-2.34/build/libc_pic.a(strcspn-sse2.os)
 .bss           0x000000000000016c        0x0 /teamspace/studios/this_studio/AI-Automated-Radiology-Report/glibc-2.34/build/libc_pic.a(strcspn-c.os)
 .bss           0x000000000000016c        0x0 /teamspace/studios/this_studio/AI-Automated-Radiology-Report/glibc-2.34/build/libc_pic.a(varshift.os)
 .bss           0x000000000000016c        0x0 /teamspace/studios/this_studio/AI-Automated-Radiology-Report/glibc-2.34/build/libc_pic.a(memset-avx512-no-vzeroupper.os)
 .bss           0x000000000000016c        0x0 /teamspace/studios/this_studio/AI-Automated-Radiology-Report/glibc-2.34/build/libc_pic.a(memmove-sse2-unaligned-erms.os)
 .bss           0x000000000000016c        0x0 /teamspace/studios/this_studio/AI-Automated-Radiology-Report/glibc-2.34/build/libc_pic.a(memmove-avx-unaligned-erms.os)
 .bss           0x000000000000016c        0x0 /teamspace/studios/this_studio/AI-Automated-Radiology-Report/glibc-2.34/build/libc_pic.a(memmove-avx512-unaligned-erms.os)
 .bss           0x000000000000016c        0x0 /teamspace/studios/this_studio/AI-Automated-Radiology-Report/glibc-2.34/build/libc_pic.a(memset-sse2-unaligned-erms.os)
 .bss           0x000000000000016c        0x0 /teamspace/studios/this_studio/AI-Automated-Radiology-Report/glibc-2.34/build/libc_pic.a(memset-avx2-unaligned-erms.os)
 .bss           0x000000000000016c        0x0 /teamspace/studios/this_studio/AI-Automated-Radiology-Report/glibc-2.34/build/libc_pic.a(memset-avx512-unaligned-erms.os)
 .bss           0x000000000000016c        0x0 /teamspace/studios/this_studio/AI-Automated-Radiology-Report/glibc-2.34/build/libc_pic.a(memchr-avx2-rtm.os)
 .bss           0x000000000000016c        0x0 /teamspace/studios/this_studio/AI-Automated-Radiology-Report/glibc-2.34/build/libc_pic.a(memcmp-avx2-movbe-rtm.os)
 .bss           0x000000000000016c        0x0 /teamspace/studios/this_studio/AI-Automated-Radiology-Report/glibc-2.34/build/libc_pic.a(memmove-avx-unaligned-erms-rtm.os)
 .bss           0x000000000000016c        0x0 /teamspace/studios/this_studio/AI-Automated-Radiology-Report/glibc-2.34/build/libc_pic.a(memset-avx2-unaligned-erms-rtm.os)
 .bss           0x000000000000016c        0x0 /teamspace/studios/this_studio/AI-Automated-Radiology-Report/glibc-2.34/build/libc_pic.a(rawmemchr-avx2-rtm.os)
 .bss           0x000000000000016c        0x0 /teamspace/studios/this_studio/AI-Automated-Radiology-Report/glibc-2.34/build/libc_pic.a(strchr-avx2-rtm.os)
 .bss           0x000000000000016c        0x0 /teamspace/studios/this_studio/AI-Automated-Radiology-Report/glibc-2.34/build/libc_pic.a(strcmp-avx2-rtm.os)
 .bss           0x000000000000016c        0x0 /teamspace/studios/this_studio/AI-Automated-Radiology-Report/glibc-2.34/build/libc_pic.a(stpcpy-avx2-rtm.os)
 .bss           0x000000000000016c        0x0 /teamspace/studios/this_studio/AI-Automated-Radiology-Report/glibc-2.34/build/libc_pic.a(strlen-avx2-rtm.os)
 .bss           0x000000000000016c        0x0 /teamspace/studios/this_studio/AI-Automated-Radiology-Report/glibc-2.34/build/libc_pic.a(strncmp-avx2-rtm.os)
 .bss           0x000000000000016c        0x0 /teamspace/studios/this_studio/AI-Automated-Radiology-Report/glibc-2.34/build/libc_pic.a(strnlen-avx2-rtm.os)
 .bss           0x000000000000016c        0x0 /teamspace/studios/this_studio/AI-Automated-Radiology-Report/glibc-2.34/build/libc_pic.a(memchr-evex.os)
 .bss           0x000000000000016c        0x0 /teamspace/studios/this_studio/AI-Automated-Radiology-Report/glibc-2.34/build/libc_pic.a(memcmp-evex-movbe.os)
 .bss           0x000000000000016c        0x0 /teamspace/studios/this_studio/AI-Automated-Radiology-Report/glibc-2.34/build/libc_pic.a(memmove-evex-unaligned-erms.os)
 .bss           0x000000000000016c        0x0 /teamspace/studios/this_studio/AI-Automated-Radiology-Report/glibc-2.34/build/libc_pic.a(memset-evex-unaligned-erms.os)
 .bss           0x000000000000016c        0x0 /teamspace/studios/this_studio/AI-Automated-Radiology-Report/glibc-2.34/build/libc_pic.a(rawmemchr-evex.os)
 .bss           0x000000000000016c        0x0 /teamspace/studios/this_studio/AI-Automated-Radiology-Report/glibc-2.34/build/libc_pic.a(stpcpy-evex.os)
 .bss           0x000000000000016c        0x0 /teamspace/studios/this_studio/AI-Automated-Radiology-Report/glibc-2.34/build/libc_pic.a(strchr-evex.os)
 .bss           0x000000000000016c        0x0 /teamspace/studios/this_studio/AI-Automated-Radiology-Report/glibc-2.34/build/libc_pic.a(strcmp-evex.os)
 .bss           0x000000000000016c        0x0 /teamspace/studios/this_studio/AI-Automated-Radiology-Report/glibc-2.34/build/libc_pic.a(strlen-evex.os)
 .bss           0x000000000000016c        0x0 /teamspace/studios/this_studio/AI-Automated-Radiology-Report/glibc-2.34/build/libc_pic.a(strncmp-evex.os)
 .bss           0x000000000000016c        0x0 /teamspace/studios/this_studio/AI-Automated-Radiology-Report/glibc-2.34/build/libc_pic.a(strnlen-evex.os)
 .bss           0x000000000000016c        0x0 /teamspace/studios/this_studio/AI-Automated-Radiology-Report/glibc-2.34/build/libc_pic.a(memchr-evex-rtm.os)
 .bss           0x000000000000016c        0x0 /teamspace/studios/this_studio/AI-Automated-Radiology-Report/glibc-2.34/build/libc_pic.a(rawmemchr-evex-rtm.os)
 *fill*         0x000000000000016c        0x4 
 .bss           0x0000000000000170       0x18 /teamspace/studios/this_studio/AI-Automated-Radiology-Report/glibc-2.34/build/libc_pic.a(cacheinfo.os)
                0x0000000000000170                __x86_string_control
                0x0000000000000178                __x86_rep_movsb_stop_threshold
                0x0000000000000180                __x86_shared_non_temporal_threshold
 .bss           0x0000000000000188        0x0 /teamspace/studios/this_studio/AI-Automated-Radiology-Report/glibc-2.34/build/libc_pic.a(closedir.os)
 .bss           0x0000000000000188        0x0 /teamspace/studios/this_studio/AI-Automated-Radiology-Report/glibc-2.34/build/libc_pic.a(rewinddir.os)
 .bss           0x0000000000000188        0x0 /teamspace/studios/this_studio/AI-Automated-Radiology-Report/glibc-2.34/build/libc_pic.a(readdir64.os)
 .bss           0x0000000000000188        0x0 /teamspace/studios/this_studio/AI-Automated-Radiology-Report/glibc-2.34/build/libc_pic.a(fdopendir.os)
 .bss           0x0000000000000188        0x0 /teamspace/studios/this_studio/AI-Automated-Radiology-Report/glibc-2.34/build/libc_pic.a(uname.os)
 .bss           0x0000000000000188        0x0 /teamspace/studios/this_studio/AI-Automated-Radiology-Report/glibc-2.34/build/libc_pic.a(_exit.os)
 .bss           0x0000000000000188        0x0 /teamspace/studios/this_studio/AI-Automated-Radiology-Report/glibc-2.34/build/libc_pic.a(getpid.os)
 .bss           0x0000000000000188        0x8 /teamspace/studios/this_studio/AI-Automated-Radiology-Report/glibc-2.34/build/libc_pic.a(environ.os)
                0x0000000000000188                _environ
                0x0000000000000188                __environ
                0x0000000000000188                environ
 .bss           0x0000000000000190        0x0 /teamspace/studios/this_studio/AI-Automated-Radiology-Report/glibc-2.34/build/libc_pic.a(stat64.os)
 .bss           0x0000000000000190        0x0 /teamspace/studios/this_studio/AI-Automated-Radiology-Report/glibc-2.34/build/libc_pic.a(fstat64.os)
 .bss           0x0000000000000190        0x0 /teamspace/studios/this_studio/AI-Automated-Radiology-Report/glibc-2.34/build/libc_pic.a(lstat64.os)
 .bss           0x0000000000000190        0x0 /teamspace/studios/this_studio/AI-Automated-Radiology-Report/glibc-2.34/build/libc_pic.a(fstatat64.os)
 .bss           0x0000000000000190        0x0 /teamspace/studios/this_studio/AI-Automated-Radiology-Report/glibc-2.34/build/libc_pic.a(openat64.os)
 .bss           0x0000000000000190        0x0 /teamspace/studios/this_studio/AI-Automated-Radiology-Report/glibc-2.34/build/libc_pic.a(lseek64.os)
 .bss           0x0000000000000190        0x0 /teamspace/studios/this_studio/AI-Automated-Radiology-Report/glibc-2.34/build/libc_pic.a(access.os)
 .bss           0x0000000000000190        0x0 /teamspace/studios/this_studio/AI-Automated-Radiology-Report/glibc-2.34/build/libc_pic.a(close_nocancel.os)
 .bss           0x0000000000000190        0x0 /teamspace/studios/this_studio/AI-Automated-Radiology-Report/glibc-2.34/build/libc_pic.a(fcntl_nocancel.os)
 .bss           0x0000000000000190        0x0 /teamspace/studios/this_studio/AI-Automated-Radiology-Report/glibc-2.34/build/libc_pic.a(open64_nocancel.os)
 .bss           0x0000000000000190        0x0 /teamspace/studios/this_studio/AI-Automated-Radiology-Report/glibc-2.34/build/libc_pic.a(read_nocancel.os)
 .bss           0x0000000000000190        0x0 /teamspace/studios/this_studio/AI-Automated-Radiology-Report/glibc-2.34/build/libc_pic.a(pread64_nocancel.os)
 .bss           0x0000000000000190        0x0 /teamspace/studios/this_studio/AI-Automated-Radiology-Report/glibc-2.34/build/libc_pic.a(write_nocancel.os)
 .bss           0x0000000000000190        0x0 /teamspace/studios/this_studio/AI-Automated-Radiology-Report/glibc-2.34/build/libc_pic.a(mmap64.os)
 .bss           0x0000000000000190        0x0 /teamspace/studios/this_studio/AI-Automated-Radiology-Report/glibc-2.34/build/libc_pic.a(munmap.os)
 .bss           0x0000000000000190        0x0 /teamspace/studios/this_studio/AI-Automated-Radiology-Report/glibc-2.34/build/libc_pic.a(mprotect.os)
 *fill*         0x0000000000000190       0x10 
 .bss           0x00000000000001a0       0xe0 /teamspace/studios/this_studio/AI-Automated-Radiology-Report/glibc-2.34/build/libc_pic.a(profil.os)
 .bss           0x0000000000000280        0x0 /teamspace/studios/this_studio/AI-Automated-Radiology-Report/glibc-2.34/build/libc_pic.a(prof-freq.os)
 .bss           0x0000000000000280        0x0 /teamspace/studios/this_studio/AI-Automated-Radiology-Report/glibc-2.34/build/libc_pic.a(dl-addr-obj.os)
 .bss           0x0000000000000280        0x0 /teamspace/studios/this_studio/AI-Automated-Radiology-Report/glibc-2.34/build/libc_pic.a(sigaction.os)
 .bss           0x0000000000000280        0x0 /teamspace/studios/this_studio/AI-Automated-Radiology-Report/glibc-2.34/build/libc_pic.a(libc_sigaction.os)
 .bss           0x0000000000000280        0x0 /teamspace/studios/this_studio/AI-Automated-Radiology-Report/glibc-2.34/build/libc_pic.a(setitimer.os)
 .bss           0x0000000000000280        0x0 /teamspace/studios/this_studio/AI-Automated-Radiology-Report/glibc-2.34/build/libc_pic.a(getdents64.os)

.lbss
 *(.lbss)

.lrodata
 *(.lrodata)

.ldata
 *(.ldata)

.stab
 *(.stab)

.stabstr
 *(.stabstr)

.stab.excl
 *(.stab.excl)

.stab.exclstr
 *(.stab.exclstr)

.stab.index
 *(.stab.index)

.stab.indexstr
 *(.stab.indexstr)

.comment        0x0000000000000000     0x10d8
 *(.comment)
 .comment       0x0000000000000000      0x86c /teamspace/studios/this_studio/AI-Automated-Radiology-Report/glibc-2.34/build/elf/dl-allobjs.os
 .comment       0x000000000000086c       0x2c /teamspace/studios/this_studio/AI-Automated-Radiology-Report/glibc-2.34/build/libc_pic.a(check_fds.os)
 .comment       0x0000000000000898       0x2c /teamspace/studios/this_studio/AI-Automated-Radiology-Report/glibc-2.34/build/libc_pic.a(errno.os)
 .comment       0x00000000000008c4       0x2c /teamspace/studios/this_studio/AI-Automated-Radiology-Report/glibc-2.34/build/libc_pic.a(lowlevellock.os)
 .comment       0x00000000000008f0       0x2c /teamspace/studios/this_studio/AI-Automated-Radiology-Report/glibc-2.34/build/libc_pic.a(scratch_buffer_set_array_size.os)
 .comment       0x000000000000091c       0x2c /teamspace/studios/this_studio/AI-Automated-Radiology-Report/glibc-2.34/build/libc_pic.a(strchr.os)
 .comment       0x0000000000000948       0x2c /teamspace/studios/this_studio/AI-Automated-Radiology-Report/glibc-2.34/build/libc_pic.a(strcmp.os)
 .comment       0x0000000000000974       0x2c /teamspace/studios/this_studio/AI-Automated-Radiology-Report/glibc-2.34/build/libc_pic.a(strcspn.os)
 .comment       0x00000000000009a0       0x2c /teamspace/studios/this_studio/AI-Automated-Radiology-Report/glibc-2.34/build/libc_pic.a(strdup.os)
 .comment       0x00000000000009cc       0x2c /teamspace/studios/this_studio/AI-Automated-Radiology-Report/glibc-2.34/build/libc_pic.a(strlen.os)
 .comment       0x00000000000009f8       0x2c /teamspace/studios/this_studio/AI-Automated-Radiology-Report/glibc-2.34/build/libc_pic.a(strnlen.os)
 .comment       0x0000000000000a24       0x2c /teamspace/studios/this_studio/AI-Automated-Radiology-Report/glibc-2.34/build/libc_pic.a(strncmp.os)
 .comment       0x0000000000000a50       0x2c /teamspace/studios/this_studio/AI-Automated-Radiology-Report/glibc-2.34/build/libc_pic.a(memchr.os)
 .comment       0x0000000000000a7c       0x2c /teamspace/studios/this_studio/AI-Automated-Radiology-Report/glibc-2.34/build/libc_pic.a(memcmp.os)
 .comment       0x0000000000000aa8       0x2c /teamspace/studios/this_studio/AI-Automated-Radiology-Report/glibc-2.34/build/libc_pic.a(memmove.os)
 .comment       0x0000000000000ad4       0x2c /teamspace/studios/this_studio/AI-Automated-Radiology-Report/glibc-2.34/build/libc_pic.a(memset.os)
 .comment       0x0000000000000b00       0x2c /teamspace/studios/this_studio/AI-Automated-Radiology-Report/glibc-2.34/build/libc_pic.a(mempcpy.os)
 .comment       0x0000000000000b2c       0x2c /teamspace/studios/this_studio/AI-Automated-Radiology-Report/glibc-2.34/build/libc_pic.a(stpcpy.os)
 .comment       0x0000000000000b58       0x2c /teamspace/studios/this_studio/AI-Automated-Radiology-Report/glibc-2.34/build/libc_pic.a(memcpy.os)
 .comment       0x0000000000000b84       0x2c /teamspace/studios/this_studio/AI-Automated-Radiology-Report/glibc-2.34/build/libc_pic.a(rawmemchr.os)
 .comment       0x0000000000000bb0       0x2c /teamspace/studios/this_studio/AI-Automated-Radiology-Report/glibc-2.34/build/libc_pic.a(strcspn-c.os)
 .comment       0x0000000000000bdc       0x2c /teamspace/studios/this_studio/AI-Automated-Radiology-Report/glibc-2.34/build/libc_pic.a(varshift.os)
 .comment       0x0000000000000c08       0x2c /teamspace/studios/this_studio/AI-Automated-Radiology-Report/glibc-2.34/build/libc_pic.a(cacheinfo.os)
 .comment       0x0000000000000c34       0x2c /teamspace/studios/this_studio/AI-Automated-Radiology-Report/glibc-2.34/build/libc_pic.a(closedir.os)
 .comment       0x0000000000000c60       0x2c /teamspace/studios/this_studio/AI-Automated-Radiology-Report/glibc-2.34/build/libc_pic.a(rewinddir.os)
 .comment       0x0000000000000c8c       0x2c /teamspace/studios/this_studio/AI-Automated-Radiology-Report/glibc-2.34/build/libc_pic.a(readdir64.os)
 .comment       0x0000000000000cb8       0x2c /teamspace/studios/this_studio/AI-Automated-Radiology-Report/glibc-2.34/build/libc_pic.a(fdopendir.os)
 .comment       0x0000000000000ce4       0x2c /teamspace/studios/this_studio/AI-Automated-Radiology-Report/glibc-2.34/build/libc_pic.a(_exit.os)
 .comment       0x0000000000000d10       0x2c /teamspace/studios/this_studio/AI-Automated-Radiology-Report/glibc-2.34/build/libc_pic.a(environ.os)
 .comment       0x0000000000000d3c       0x2c /teamspace/studios/this_studio/AI-Automated-Radiology-Report/glibc-2.34/build/libc_pic.a(stat64.os)
 .comment       0x0000000000000d68       0x2c /teamspace/studios/this_studio/AI-Automated-Radiology-Report/glibc-2.34/build/libc_pic.a(fstat64.os)
 .comment       0x0000000000000d94       0x2c /teamspace/studios/this_studio/AI-Automated-Radiology-Report/glibc-2.34/build/libc_pic.a(lstat64.os)
 .comment       0x0000000000000dc0       0x2c /teamspace/studios/this_studio/AI-Automated-Radiology-Report/glibc-2.34/build/libc_pic.a(fstatat64.os)
 .comment       0x0000000000000dec       0x2c /teamspace/studios/this_studio/AI-Automated-Radiology-Report/glibc-2.34/build/libc_pic.a(openat64.os)
 .comment       0x0000000000000e18       0x2c /teamspace/studios/this_studio/AI-Automated-Radiology-Report/glibc-2.34/build/libc_pic.a(lseek64.os)
 .comment       0x0000000000000e44       0x2c /teamspace/studios/this_studio/AI-Automated-Radiology-Report/glibc-2.34/build/libc_pic.a(access.os)
 .comment       0x0000000000000e70       0x2c /teamspace/studios/this_studio/AI-Automated-Radiology-Report/glibc-2.34/build/libc_pic.a(close_nocancel.os)
 .comment       0x0000000000000e9c       0x2c /teamspace/studios/this_studio/AI-Automated-Radiology-Report/glibc-2.34/build/libc_pic.a(fcntl_nocancel.os)
 .comment       0x0000000000000ec8       0x2c /teamspace/studios/this_studio/AI-Automated-Radiology-Report/glibc-2.34/build/libc_pic.a(open64_nocancel.os)
 .comment       0x0000000000000ef4       0x2c /teamspace/studios/this_studio/AI-Automated-Radiology-Report/glibc-2.34/build/libc_pic.a(read_nocancel.os)
 .comment       0x0000000000000f20       0x2c /teamspace/studios/this_studio/AI-Automated-Radiology-Report/glibc-2.34/build/libc_pic.a(pread64_nocancel.os)
 .comment       0x0000000000000f4c       0x2c /teamspace/studios/this_studio/AI-Automated-Radiology-Report/glibc-2.34/build/libc_pic.a(write_nocancel.os)
 .comment       0x0000000000000f78       0x2c /teamspace/studios/this_studio/AI-Automated-Radiology-Report/glibc-2.34/build/libc_pic.a(mmap64.os)
 .comment       0x0000000000000fa4       0x2c /teamspace/studios/this_studio/AI-Automated-Radiology-Report/glibc-2.34/build/libc_pic.a(profil.os)
 .comment       0x0000000000000fd0       0x2c /teamspace/studios/this_studio/AI-Automated-Radiology-Report/glibc-2.34/build/libc_pic.a(prof-freq.os)
 .comment       0x0000000000000ffc       0x2c /teamspace/studios/this_studio/AI-Automated-Radiology-Report/glibc-2.34/build/libc_pic.a(dl-addr-obj.os)
 .comment       0x0000000000001028       0x2c /teamspace/studios/this_studio/AI-Automated-Radiology-Report/glibc-2.34/build/libc_pic.a(sigaction.os)
 .comment       0x0000000000001054       0x2c /teamspace/studios/this_studio/AI-Automated-Radiology-Report/glibc-2.34/build/libc_pic.a(libc_sigaction.os)
 .comment       0x0000000000001080       0x2c /teamspace/studios/this_studio/AI-Automated-Radiology-Report/glibc-2.34/build/libc_pic.a(setitimer.os)
 .comment       0x00000000000010ac       0x2c /teamspace/studios/this_studio/AI-Automated-Radiology-Report/glibc-2.34/build/libc_pic.a(getdents64.os)

.note.GNU-stack
                0x0000000000000000        0x0
 .note.GNU-stack
                0x0000000000000000        0x0 /teamspace/studios/this_studio/AI-Automated-Radiology-Report/glibc-2.34/build/elf/librtld.mapT.o
 .note.GNU-stack
                0x0000000000000000        0x0 /teamspace/studios/this_studio/AI-Automated-Radiology-Report/glibc-2.34/build/elf/dl-allobjs.os
 .note.GNU-stack
                0x0000000000000000        0x0 /teamspace/studios/this_studio/AI-Automated-Radiology-Report/glibc-2.34/build/libc_pic.a(check_fds.os)
 .note.GNU-stack
                0x0000000000000000        0x0 /teamspace/studios/this_studio/AI-Automated-Radiology-Report/glibc-2.34/build/libc_pic.a(errno.os)
 .note.GNU-stack
                0x0000000000000000        0x0 /teamspace/studios/this_studio/AI-Automated-Radiology-Report/glibc-2.34/build/libc_pic.a(setjmp.os)
 .note.GNU-stack
                0x0000000000000000        0x0 /teamspace/studios/this_studio/AI-Automated-Radiology-Report/glibc-2.34/build/libc_pic.a(__longjmp.os)
 .note.GNU-stack
                0x0000000000000000        0x0 /teamspace/studios/this_studio/AI-Automated-Radiology-Report/glibc-2.34/build/libc_pic.a(lowlevellock.os)
 .note.GNU-stack
                0x0000000000000000        0x0 /teamspace/studios/this_studio/AI-Automated-Radiology-Report/glibc-2.34/build/libc_pic.a(scratch_buffer_set_array_size.os)
 .note.GNU-stack
                0x0000000000000000        0x0 /teamspace/studios/this_studio/AI-Automated-Radiology-Report/glibc-2.34/build/libc_pic.a(strchr.os)
 .note.GNU-stack
                0x0000000000000000        0x0 /teamspace/studios/this_studio/AI-Automated-Radiology-Report/glibc-2.34/build/libc_pic.a(strcmp.os)
 .note.GNU-stack
                0x0000000000000000        0x0 /teamspace/studios/this_studio/AI-Automated-Radiology-Report/glibc-2.34/build/libc_pic.a(strcspn.os)
 .note.GNU-stack
                0x0000000000000000        0x0 /teamspace/studios/this_studio/AI-Automated-Radiology-Report/glibc-2.34/build/libc_pic.a(strdup.os)
 .note.GNU-stack
                0x0000000000000000        0x0 /teamspace/studios/this_studio/AI-Automated-Radiology-Report/glibc-2.34/build/libc_pic.a(strlen.os)
 .note.GNU-stack
                0x0000000000000000        0x0 /teamspace/studios/this_studio/AI-Automated-Radiology-Report/glibc-2.34/build/libc_pic.a(strnlen.os)
 .note.GNU-stack
                0x0000000000000000        0x0 /teamspace/studios/this_studio/AI-Automated-Radiology-Report/glibc-2.34/build/libc_pic.a(strncmp.os)
 .note.GNU-stack
                0x0000000000000000        0x0 /teamspace/studios/this_studio/AI-Automated-Radiology-Report/glibc-2.34/build/libc_pic.a(memchr.os)
 .note.GNU-stack
                0x0000000000000000        0x0 /teamspace/studios/this_studio/AI-Automated-Radiology-Report/glibc-2.34/build/libc_pic.a(memcmp.os)
 .note.GNU-stack
                0x0000000000000000        0x0 /teamspace/studios/this_studio/AI-Automated-Radiology-Report/glibc-2.34/build/libc_pic.a(memmove.os)
 .note.GNU-stack
                0x0000000000000000        0x0 /teamspace/studios/this_studio/AI-Automated-Radiology-Report/glibc-2.34/build/libc_pic.a(memset.os)
 .note.GNU-stack
                0x0000000000000000        0x0 /teamspace/studios/this_studio/AI-Automated-Radiology-Report/glibc-2.34/build/libc_pic.a(mempcpy.os)
 .note.GNU-stack
                0x0000000000000000        0x0 /teamspace/studios/this_studio/AI-Automated-Radiology-Report/glibc-2.34/build/libc_pic.a(stpcpy.os)
 .note.GNU-stack
                0x0000000000000000        0x0 /teamspace/studios/this_studio/AI-Automated-Radiology-Report/glibc-2.34/build/libc_pic.a(memcpy.os)
 .note.GNU-stack
                0x0000000000000000        0x0 /teamspace/studios/this_studio/AI-Automated-Radiology-Report/glibc-2.34/build/libc_pic.a(rawmemchr.os)
 .note.GNU-stack
                0x0000000000000000        0x0 /teamspace/studios/this_studio/AI-Automated-Radiology-Report/glibc-2.34/build/libc_pic.a(strcmp-sse2.os)
 .note.GNU-stack
                0x0000000000000000        0x0 /teamspace/studios/this_studio/AI-Automated-Radiology-Report/glibc-2.34/build/libc_pic.a(strcmp-sse2-unaligned.os)
 .note.GNU-stack
                0x0000000000000000        0x0 /teamspace/studios/this_studio/AI-Automated-Radiology-Report/glibc-2.34/build/libc_pic.a(strcmp-ssse3.os)
 .note.GNU-stack
                0x0000000000000000        0x0 /teamspace/studios/this_studio/AI-Automated-Radiology-Report/glibc-2.34/build/libc_pic.a(strcmp-avx2.os)
 .note.GNU-stack
                0x0000000000000000        0x0 /teamspace/studios/this_studio/AI-Automated-Radiology-Report/glibc-2.34/build/libc_pic.a(strncmp-sse2.os)
 .note.GNU-stack
                0x0000000000000000        0x0 /teamspace/studios/this_studio/AI-Automated-Radiology-Report/glibc-2.34/build/libc_pic.a(strncmp-ssse3.os)
 .note.GNU-stack
                0x0000000000000000        0x0 /teamspace/studios/this_studio/AI-Automated-Radiology-Report/glibc-2.34/build/libc_pic.a(strncmp-sse4_2.os)
 .note.GNU-stack
                0x0000000000000000        0x0 /teamspace/studios/this_studio/AI-Automated-Radiology-Report/glibc-2.34/build/libc_pic.a(strncmp-avx2.os)
 .note.GNU-stack
                0x0000000000000000        0x0 /teamspace/studios/this_studio/AI-Automated-Radiology-Report/glibc-2.34/build/libc_pic.a(memchr-sse2.os)
 .note.GNU-stack
                0x0000000000000000        0x0 /teamspace/studios/this_studio/AI-Automated-Radiology-Report/glibc-2.34/build/libc_pic.a(rawmemchr-sse2.os)
 .note.GNU-stack
                0x0000000000000000        0x0 /teamspace/studios/this_studio/AI-Automated-Radiology-Report/glibc-2.34/build/libc_pic.a(memchr-avx2.os)
 .note.GNU-stack
                0x0000000000000000        0x0 /teamspace/studios/this_studio/AI-Automated-Radiology-Report/glibc-2.34/build/libc_pic.a(rawmemchr-avx2.os)
 .note.GNU-stack
                0x0000000000000000        0x0 /teamspace/studios/this_studio/AI-Automated-Radiology-Report/glibc-2.34/build/libc_pic.a(memcmp-sse2.os)
 .note.GNU-stack
                0x0000000000000000        0x0 /teamspace/studios/this_studio/AI-Automated-Radiology-Report/glibc-2.34/build/libc_pic.a(memcmp-avx2-movbe.os)
 .note.GNU-stack
                0x0000000000000000        0x0 /teamspace/studios/this_studio/AI-Automated-Radiology-Report/glibc-2.34/build/libc_pic.a(memcmp-sse4.os)
 .note.GNU-stack
                0x0000000000000000        0x0 /teamspace/studios/this_studio/AI-Automated-Radiology-Report/glibc-2.34/build/libc_pic.a(memcpy-ssse3.os)
 .note.GNU-stack
                0x0000000000000000        0x0 /teamspace/studios/this_studio/AI-Automated-Radiology-Report/glibc-2.34/build/libc_pic.a(memmove-ssse3.os)
 .note.GNU-stack
                0x0000000000000000        0x0 /teamspace/studios/this_studio/AI-Automated-Radiology-Report/glibc-2.34/build/libc_pic.a(memcpy-ssse3-back.os)
 .note.GNU-stack
                0x0000000000000000        0x0 /teamspace/studios/this_studio/AI-Automated-Radiology-Report/glibc-2.34/build/libc_pic.a(memmove-ssse3-back.os)
 .note.GNU-stack
                0x0000000000000000        0x0 /teamspace/studios/this_studio/AI-Automated-Radiology-Report/glibc-2.34/build/libc_pic.a(memmove-avx512-no-vzeroupper.os)
 .note.GNU-stack
                0x0000000000000000        0x0 /teamspace/studios/this_studio/AI-Automated-Radiology-Report/glibc-2.34/build/libc_pic.a(strchr-sse2.os)
 .note.GNU-stack
                0x0000000000000000        0x0 /teamspace/studios/this_studio/AI-Automated-Radiology-Report/glibc-2.34/build/libc_pic.a(strchr-avx2.os)
 .note.GNU-stack
                0x0000000000000000        0x0 /teamspace/studios/this_studio/AI-Automated-Radiology-Report/glibc-2.34/build/libc_pic.a(strlen-sse2.os)
 .note.GNU-stack
                0x0000000000000000        0x0 /teamspace/studios/this_studio/AI-Automated-Radiology-Report/glibc-2.34/build/libc_pic.a(strnlen-sse2.os)
 .note.GNU-stack
                0x0000000000000000        0x0 /teamspace/studios/this_studio/AI-Automated-Radiology-Report/glibc-2.34/build/libc_pic.a(strlen-avx2.os)
 .note.GNU-stack
                0x0000000000000000        0x0 /teamspace/studios/this_studio/AI-Automated-Radiology-Report/glibc-2.34/build/libc_pic.a(strnlen-avx2.os)
 .note.GNU-stack
                0x0000000000000000        0x0 /teamspace/studios/this_studio/AI-Automated-Radiology-Report/glibc-2.34/build/libc_pic.a(stpcpy-sse2.os)
 .note.GNU-stack
                0x0000000000000000        0x0 /teamspace/studios/this_studio/AI-Automated-Radiology-Report/glibc-2.34/build/libc_pic.a(stpcpy-ssse3.os)
 .note.GNU-stack
                0x0000000000000000        0x0 /teamspace/studios/this_studio/AI-Automated-Radiology-Report/glibc-2.34/build/libc_pic.a(stpcpy-sse2-unaligned.os)
 .note.GNU-stack
                0x0000000000000000        0x0 /teamspace/studios/this_studio/AI-Automated-Radiology-Report/glibc-2.34/build/libc_pic.a(stpcpy-avx2.os)
 .note.GNU-stack
                0x0000000000000000        0x0 /teamspace/studios/this_studio/AI-Automated-Radiology-Report/glibc-2.34/build/libc_pic.a(strchr-sse2-no-bsf.os)
 .note.GNU-stack
                0x0000000000000000        0x0 /teamspace/studios/this_studio/AI-Automated-Radiology-Report/glibc-2.34/build/libc_pic.a(memcmp-ssse3.os)
 .note.GNU-stack
                0x0000000000000000        0x0 /teamspace/studios/this_studio/AI-Automated-Radiology-Report/glibc-2.34/build/libc_pic.a(strcspn-sse2.os)
 .note.GNU-stack
                0x0000000000000000        0x0 /teamspace/studios/this_studio/AI-Automated-Radiology-Report/glibc-2.34/build/libc_pic.a(strcspn-c.os)
 .note.GNU-stack
                0x0000000000000000        0x0 /teamspace/studios/this_studio/AI-Automated-Radiology-Report/glibc-2.34/build/libc_pic.a(varshift.os)
 .note.GNU-stack
                0x0000000000000000        0x0 /teamspace/studios/this_studio/AI-Automated-Radiology-Report/glibc-2.34/build/libc_pic.a(memset-avx512-no-vzeroupper.os)
 .note.GNU-stack
                0x0000000000000000        0x0 /teamspace/studios/this_studio/AI-Automated-Radiology-Report/glibc-2.34/build/libc_pic.a(memmove-sse2-unaligned-erms.os)
 .note.GNU-stack
                0x0000000000000000        0x0 /teamspace/studios/this_studio/AI-Automated-Radiology-Report/glibc-2.34/build/libc_pic.a(memmove-avx-unaligned-erms.os)
 .note.GNU-stack
                0x0000000000000000        0x0 /teamspace/studios/this_studio/AI-Automated-Radiology-Report/glibc-2.34/build/libc_pic.a(memmove-avx512-unaligned-erms.os)
 .note.GNU-stack
                0x0000000000000000        0x0 /teamspace/studios/this_studio/AI-Automated-Radiology-Report/glibc-2.34/build/libc_pic.a(memset-sse2-unaligned-erms.os)
 .note.GNU-stack
                0x0000000000000000        0x0 /teamspace/studios/this_studio/AI-Automated-Radiology-Report/glibc-2.34/build/libc_pic.a(memset-avx2-unaligned-erms.os)
 .note.GNU-stack
                0x0000000000000000        0x0 /teamspace/studios/this_studio/AI-Automated-Radiology-Report/glibc-2.34/build/libc_pic.a(memset-avx512-unaligned-erms.os)
 .note.GNU-stack
                0x0000000000000000        0x0 /teamspace/studios/this_studio/AI-Automated-Radiology-Report/glibc-2.34/build/libc_pic.a(memchr-avx2-rtm.os)
 .note.GNU-stack
                0x0000000000000000        0x0 /teamspace/studios/this_studio/AI-Automated-Radiology-Report/glibc-2.34/build/libc_pic.a(memcmp-avx2-movbe-rtm.os)
 .note.GNU-stack
                0x0000000000000000        0x0 /teamspace/studios/this_studio/AI-Automated-Radiology-Report/glibc-2.34/build/libc_pic.a(memmove-avx-unaligned-erms-rtm.os)
 .note.GNU-stack
                0x0000000000000000        0x0 /teamspace/studios/this_studio/AI-Automated-Radiology-Report/glibc-2.34/build/libc_pic.a(memset-avx2-unaligned-erms-rtm.os)
 .note.GNU-stack
                0x0000000000000000        0x0 /teamspace/studios/this_studio/AI-Automated-Radiology-Report/glibc-2.34/build/libc_pic.a(rawmemchr-avx2-rtm.os)
 .note.GNU-stack
                0x0000000000000000        0x0 /teamspace/studios/this_studio/AI-Automated-Radiology-Report/glibc-2.34/build/libc_pic.a(strchr-avx2-rtm.os)
 .note.GNU-stack
                0x0000000000000000        0x0 /teamspace/studios/this_studio/AI-Automated-Radiology-Report/glibc-2.34/build/libc_pic.a(strcmp-avx2-rtm.os)
 .note.GNU-stack
                0x0000000000000000        0x0 /teamspace/studios/this_studio/AI-Automated-Radiology-Report/glibc-2.34/build/libc_pic.a(stpcpy-avx2-rtm.os)
 .note.GNU-stack
                0x0000000000000000        0x0 /teamspace/studios/this_studio/AI-Automated-Radiology-Report/glibc-2.34/build/libc_pic.a(strlen-avx2-rtm.os)
 .note.GNU-stack
                0x0000000000000000        0x0 /teamspace/studios/this_studio/AI-Automated-Radiology-Report/glibc-2.34/build/libc_pic.a(strncmp-avx2-rtm.os)
 .note.GNU-stack
                0x0000000000000000        0x0 /teamspace/studios/this_studio/AI-Automated-Radiology-Report/glibc-2.34/build/libc_pic.a(strnlen-avx2-rtm.os)
 .note.GNU-stack
                0x0000000000000000        0x0 /teamspace/studios/this_studio/AI-Automated-Radiology-Report/glibc-2.34/build/libc_pic.a(memchr-evex.os)
 .note.GNU-stack
                0x0000000000000000        0x0 /teamspace/studios/this_studio/AI-Automated-Radiology-Report/glibc-2.34/build/libc_pic.a(memcmp-evex-movbe.os)
 .note.GNU-stack
                0x0000000000000000        0x0 /teamspace/studios/this_studio/AI-Automated-Radiology-Report/glibc-2.34/build/libc_pic.a(memmove-evex-unaligned-erms.os)
 .note.GNU-stack
                0x0000000000000000        0x0 /teamspace/studios/this_studio/AI-Automated-Radiology-Report/glibc-2.34/build/libc_pic.a(memset-evex-unaligned-erms.os)
 .note.GNU-stack
                0x0000000000000000        0x0 /teamspace/studios/this_studio/AI-Automated-Radiology-Report/glibc-2.34/build/libc_pic.a(rawmemchr-evex.os)
 .note.GNU-stack
                0x0000000000000000        0x0 /teamspace/studios/this_studio/AI-Automated-Radiology-Report/glibc-2.34/build/libc_pic.a(stpcpy-evex.os)
 .note.GNU-stack
                0x0000000000000000        0x0 /teamspace/studios/this_studio/AI-Automated-Radiology-Report/glibc-2.34/build/libc_pic.a(strchr-evex.os)
 .note.GNU-stack
                0x0000000000000000        0x0 /teamspace/studios/this_studio/AI-Automated-Radiology-Report/glibc-2.34/build/libc_pic.a(strcmp-evex.os)
 .note.GNU-stack
                0x0000000000000000        0x0 /teamspace/studios/this_studio/AI-Automated-Radiology-Report/glibc-2.34/build/libc_pic.a(strlen-evex.os)
 .note.GNU-stack
                0x0000000000000000        0x0 /teamspace/studios/this_studio/AI-Automated-Radiology-Report/glibc-2.34/build/libc_pic.a(strncmp-evex.os)
 .note.GNU-stack
                0x0000000000000000        0x0 /teamspace/studios/this_studio/AI-Automated-Radiology-Report/glibc-2.34/build/libc_pic.a(strnlen-evex.os)
 .note.GNU-stack
                0x0000000000000000        0x0 /teamspace/studios/this_studio/AI-Automated-Radiology-Report/glibc-2.34/build/libc_pic.a(memchr-evex-rtm.os)
 .note.GNU-stack
                0x0000000000000000        0x0 /teamspace/studios/this_studio/AI-Automated-Radiology-Report/glibc-2.34/build/libc_pic.a(rawmemchr-evex-rtm.os)
 .note.GNU-stack
                0x0000000000000000        0x0 /teamspace/studios/this_studio/AI-Automated-Radiology-Report/glibc-2.34/build/libc_pic.a(cacheinfo.os)
 .note.GNU-stack
                0x0000000000000000        0x0 /teamspace/studios/this_studio/AI-Automated-Radiology-Report/glibc-2.34/build/libc_pic.a(closedir.os)
 .note.GNU-stack
                0x0000000000000000        0x0 /teamspace/studios/this_studio/AI-Automated-Radiology-Report/glibc-2.34/build/libc_pic.a(rewinddir.os)
 .note.GNU-stack
                0x0000000000000000        0x0 /teamspace/studios/this_studio/AI-Automated-Radiology-Report/glibc-2.34/build/libc_pic.a(readdir64.os)
 .note.GNU-stack
                0x0000000000000000        0x0 /teamspace/studios/this_studio/AI-Automated-Radiology-Report/glibc-2.34/build/libc_pic.a(fdopendir.os)
 .note.GNU-stack
                0x0000000000000000        0x0 /teamspace/studios/this_studio/AI-Automated-Radiology-Report/glibc-2.34/build/libc_pic.a(uname.os)
 .note.GNU-stack
                0x0000000000000000        0x0 /teamspace/studios/this_studio/AI-Automated-Radiology-Report/glibc-2.34/build/libc_pic.a(_exit.os)
 .note.GNU-stack
                0x0000000000000000        0x0 /teamspace/studios/this_studio/AI-Automated-Radiology-Report/glibc-2.34/build/libc_pic.a(getpid.os)
 .note.GNU-stack
                0x0000000000000000        0x0 /teamspace/studios/this_studio/AI-Automated-Radiology-Report/glibc-2.34/build/libc_pic.a(environ.os)
 .note.GNU-stack
                0x0000000000000000        0x0 /teamspace/studios/this_studio/AI-Automated-Radiology-Report/glibc-2.34/build/libc_pic.a(stat64.os)
 .note.GNU-stack
                0x0000000000000000        0x0 /teamspace/studios/this_studio/AI-Automated-Radiology-Report/glibc-2.34/build/libc_pic.a(fstat64.os)
 .note.GNU-stack
                0x0000000000000000        0x0 /teamspace/studios/this_studio/AI-Automated-Radiology-Report/glibc-2.34/build/libc_pic.a(lstat64.os)
 .note.GNU-stack
                0x0000000000000000        0x0 /teamspace/studios/this_studio/AI-Automated-Radiology-Report/glibc-2.34/build/libc_pic.a(fstatat64.os)
 .note.GNU-stack
                0x0000000000000000        0x0 /teamspace/studios/this_studio/AI-Automated-Radiology-Report/glibc-2.34/build/libc_pic.a(openat64.os)
 .note.GNU-stack
                0x0000000000000000        0x0 /teamspace/studios/this_studio/AI-Automated-Radiology-Report/glibc-2.34/build/libc_pic.a(lseek64.os)
 .note.GNU-stack
                0x0000000000000000        0x0 /teamspace/studios/this_studio/AI-Automated-Radiology-Report/glibc-2.34/build/libc_pic.a(access.os)
 .note.GNU-stack
                0x0000000000000000        0x0 /teamspace/studios/this_studio/AI-Automated-Radiology-Report/glibc-2.34/build/libc_pic.a(close_nocancel.os)
 .note.GNU-stack
                0x0000000000000000        0x0 /teamspace/studios/this_studio/AI-Automated-Radiology-Report/glibc-2.34/build/libc_pic.a(fcntl_nocancel.os)
 .note.GNU-stack
                0x0000000000000000        0x0 /teamspace/studios/this_studio/AI-Automated-Radiology-Report/glibc-2.34/build/libc_pic.a(open64_nocancel.os)
 .note.GNU-stack
                0x0000000000000000        0x0 /teamspace/studios/this_studio/AI-Automated-Radiology-Report/glibc-2.34/build/libc_pic.a(read_nocancel.os)
 .note.GNU-stack
                0x0000000000000000        0x0 /teamspace/studios/this_studio/AI-Automated-Radiology-Report/glibc-2.34/build/libc_pic.a(pread64_nocancel.os)
 .note.GNU-stack
                0x0000000000000000        0x0 /teamspace/studios/this_studio/AI-Automated-Radiology-Report/glibc-2.34/build/libc_pic.a(write_nocancel.os)
 .note.GNU-stack
                0x0000000000000000        0x0 /teamspace/studios/this_studio/AI-Automated-Radiology-Report/glibc-2.34/build/libc_pic.a(mmap64.os)
 .note.GNU-stack
                0x0000000000000000        0x0 /teamspace/studios/this_studio/AI-Automated-Radiology-Report/glibc-2.34/build/libc_pic.a(munmap.os)
 .note.GNU-stack
                0x0000000000000000        0x0 /teamspace/studios/this_studio/AI-Automated-Radiology-Report/glibc-2.34/build/libc_pic.a(mprotect.os)
 .note.GNU-stack
                0x0000000000000000        0x0 /teamspace/studios/this_studio/AI-Automated-Radiology-Report/glibc-2.34/build/libc_pic.a(profil.os)
 .note.GNU-stack
                0x0000000000000000        0x0 /teamspace/studios/this_studio/AI-Automated-Radiology-Report/glibc-2.34/build/libc_pic.a(prof-freq.os)
 .note.GNU-stack
                0x0000000000000000        0x0 /teamspace/studios/this_studio/AI-Automated-Radiology-Report/glibc-2.34/build/libc_pic.a(dl-addr-obj.os)
 .note.GNU-stack
                0x0000000000000000        0x0 /teamspace/studios/this_studio/AI-Automated-Radiology-Report/glibc-2.34/build/libc_pic.a(sigaction.os)
 .note.GNU-stack
                0x0000000000000000        0x0 /teamspace/studios/this_studio/AI-Automated-Radiology-Report/glibc-2.34/build/libc_pic.a(libc_sigaction.os)
 .note.GNU-stack
                0x0000000000000000        0x0 /teamspace/studios/this_studio/AI-Automated-Radiology-Report/glibc-2.34/build/libc_pic.a(setitimer.os)
 .note.GNU-stack
                0x0000000000000000        0x0 /teamspace/studios/this_studio/AI-Automated-Radiology-Report/glibc-2.34/build/libc_pic.a(getdents64.os)

.gnu.build.attributes
 *(.gnu.build.attributes)

.debug
 *(.debug)

.line
 *(.line)

.debug_srcinfo
 *(.debug_srcinfo)

.debug_sfnames
 *(.debug_sfnames)

.debug_aranges  0x0000000000000000     0x1fe0
 *(.debug_aranges)
 .debug_aranges
                0x0000000000000000      0x9c0 /teamspace/studios/this_studio/AI-Automated-Radiology-Report/glibc-2.34/build/elf/dl-allobjs.os
 .debug_aranges
                0x00000000000009c0       0x30 /teamspace/studios/this_studio/AI-Automated-Radiology-Report/glibc-2.34/build/libc_pic.a(check_fds.os)
 .debug_aranges
                0x00000000000009f0       0x20 /teamspace/studios/this_studio/AI-Automated-Radiology-Report/glibc-2.34/build/libc_pic.a(errno.os)
 .debug_aranges
                0x0000000000000a10       0x30 /teamspace/studios/this_studio/AI-Automated-Radiology-Report/glibc-2.34/build/libc_pic.a(setjmp.os)
 .debug_aranges
                0x0000000000000a40       0x30 /teamspace/studios/this_studio/AI-Automated-Radiology-Report/glibc-2.34/build/libc_pic.a(__longjmp.os)
 .debug_aranges
                0x0000000000000a70       0x30 /teamspace/studios/this_studio/AI-Automated-Radiology-Report/glibc-2.34/build/libc_pic.a(lowlevellock.os)
 .debug_aranges
                0x0000000000000aa0       0x30 /teamspace/studios/this_studio/AI-Automated-Radiology-Report/glibc-2.34/build/libc_pic.a(scratch_buffer_set_array_size.os)
 .debug_aranges
                0x0000000000000ad0       0x30 /teamspace/studios/this_studio/AI-Automated-Radiology-Report/glibc-2.34/build/libc_pic.a(strchr.os)
 .debug_aranges
                0x0000000000000b00       0x30 /teamspace/studios/this_studio/AI-Automated-Radiology-Report/glibc-2.34/build/libc_pic.a(strcmp.os)
 .debug_aranges
                0x0000000000000b30       0x30 /teamspace/studios/this_studio/AI-Automated-Radiology-Report/glibc-2.34/build/libc_pic.a(strcspn.os)
 .debug_aranges
                0x0000000000000b60       0x30 /teamspace/studios/this_studio/AI-Automated-Radiology-Report/glibc-2.34/build/libc_pic.a(strdup.os)
 .debug_aranges
                0x0000000000000b90       0x30 /teamspace/studios/this_studio/AI-Automated-Radiology-Report/glibc-2.34/build/libc_pic.a(strlen.os)
 .debug_aranges
                0x0000000000000bc0       0x30 /teamspace/studios/this_studio/AI-Automated-Radiology-Report/glibc-2.34/build/libc_pic.a(strnlen.os)
 .debug_aranges
                0x0000000000000bf0       0x30 /teamspace/studios/this_studio/AI-Automated-Radiology-Report/glibc-2.34/build/libc_pic.a(strncmp.os)
 .debug_aranges
                0x0000000000000c20       0x30 /teamspace/studios/this_studio/AI-Automated-Radiology-Report/glibc-2.34/build/libc_pic.a(memchr.os)
 .debug_aranges
                0x0000000000000c50       0x30 /teamspace/studios/this_studio/AI-Automated-Radiology-Report/glibc-2.34/build/libc_pic.a(memcmp.os)
 .debug_aranges
                0x0000000000000c80       0x30 /teamspace/studios/this_studio/AI-Automated-Radiology-Report/glibc-2.34/build/libc_pic.a(memmove.os)
 .debug_aranges
                0x0000000000000cb0       0x30 /teamspace/studios/this_studio/AI-Automated-Radiology-Report/glibc-2.34/build/libc_pic.a(memset.os)
 .debug_aranges
                0x0000000000000ce0       0x30 /teamspace/studios/this_studio/AI-Automated-Radiology-Report/glibc-2.34/build/libc_pic.a(mempcpy.os)
 .debug_aranges
                0x0000000000000d10       0x30 /teamspace/studios/this_studio/AI-Automated-Radiology-Report/glibc-2.34/build/libc_pic.a(stpcpy.os)
 .debug_aranges
                0x0000000000000d40       0x30 /teamspace/studios/this_studio/AI-Automated-Radiology-Report/glibc-2.34/build/libc_pic.a(memcpy.os)
 .debug_aranges
                0x0000000000000d70       0x30 /teamspace/studios/this_studio/AI-Automated-Radiology-Report/glibc-2.34/build/libc_pic.a(rawmemchr.os)
 .debug_aranges
                0x0000000000000da0       0x30 /teamspace/studios/this_studio/AI-Automated-Radiology-Report/glibc-2.34/build/libc_pic.a(strcmp-sse2.os)
 .debug_aranges
                0x0000000000000dd0       0x30 /teamspace/studios/this_studio/AI-Automated-Radiology-Report/glibc-2.34/build/libc_pic.a(strcmp-sse2-unaligned.os)
 .debug_aranges
                0x0000000000000e00       0x30 /teamspace/studios/this_studio/AI-Automated-Radiology-Report/glibc-2.34/build/libc_pic.a(strcmp-ssse3.os)
 .debug_aranges
                0x0000000000000e30       0x30 /teamspace/studios/this_studio/AI-Automated-Radiology-Report/glibc-2.34/build/libc_pic.a(strcmp-avx2.os)
 .debug_aranges
                0x0000000000000e60       0x30 /teamspace/studios/this_studio/AI-Automated-Radiology-Report/glibc-2.34/build/libc_pic.a(strncmp-sse2.os)
 .debug_aranges
                0x0000000000000e90       0x30 /teamspace/studios/this_studio/AI-Automated-Radiology-Report/glibc-2.34/build/libc_pic.a(strncmp-ssse3.os)
 .debug_aranges
                0x0000000000000ec0       0x30 /teamspace/studios/this_studio/AI-Automated-Radiology-Report/glibc-2.34/build/libc_pic.a(strncmp-sse4_2.os)
 .debug_aranges
                0x0000000000000ef0       0x30 /teamspace/studios/this_studio/AI-Automated-Radiology-Report/glibc-2.34/build/libc_pic.a(strncmp-avx2.os)
 .debug_aranges
                0x0000000000000f20       0x30 /teamspace/studios/this_studio/AI-Automated-Radiology-Report/glibc-2.34/build/libc_pic.a(memchr-sse2.os)
 .debug_aranges
                0x0000000000000f50       0x30 /teamspace/studios/this_studio/AI-Automated-Radiology-Report/glibc-2.34/build/libc_pic.a(rawmemchr-sse2.os)
 .debug_aranges
                0x0000000000000f80       0x30 /teamspace/studios/this_studio/AI-Automated-Radiology-Report/glibc-2.34/build/libc_pic.a(memchr-avx2.os)
 .debug_aranges
                0x0000000000000fb0       0x30 /teamspace/studios/this_studio/AI-Automated-Radiology-Report/glibc-2.34/build/libc_pic.a(rawmemchr-avx2.os)
 .debug_aranges
                0x0000000000000fe0       0x30 /teamspace/studios/this_studio/AI-Automated-Radiology-Report/glibc-2.34/build/libc_pic.a(memcmp-sse2.os)
 .debug_aranges
                0x0000000000001010       0x30 /teamspace/studios/this_studio/AI-Automated-Radiology-Report/glibc-2.34/build/libc_pic.a(memcmp-avx2-movbe.os)
 .debug_aranges
                0x0000000000001040       0x30 /teamspace/studios/this_studio/AI-Automated-Radiology-Report/glibc-2.34/build/libc_pic.a(memcmp-sse4.os)
 .debug_aranges
                0x0000000000001070       0x30 /teamspace/studios/this_studio/AI-Automated-Radiology-Report/glibc-2.34/build/libc_pic.a(memcpy-ssse3.os)
 .debug_aranges
                0x00000000000010a0       0x30 /teamspace/studios/this_studio/AI-Automated-Radiology-Report/glibc-2.34/build/libc_pic.a(memmove-ssse3.os)
 .debug_aranges
                0x00000000000010d0       0x30 /teamspace/studios/this_studio/AI-Automated-Radiology-Report/glibc-2.34/build/libc_pic.a(memcpy-ssse3-back.os)
 .debug_aranges
                0x0000000000001100       0x30 /teamspace/studios/this_studio/AI-Automated-Radiology-Report/glibc-2.34/build/libc_pic.a(memmove-ssse3-back.os)
 .debug_aranges
                0x0000000000001130       0x30 /teamspace/studios/this_studio/AI-Automated-Radiology-Report/glibc-2.34/build/libc_pic.a(memmove-avx512-no-vzeroupper.os)
 .debug_aranges
                0x0000000000001160       0x30 /teamspace/studios/this_studio/AI-Automated-Radiology-Report/glibc-2.34/build/libc_pic.a(strchr-sse2.os)
 .debug_aranges
                0x0000000000001190       0x30 /teamspace/studios/this_studio/AI-Automated-Radiology-Report/glibc-2.34/build/libc_pic.a(strchr-avx2.os)
 .debug_aranges
                0x00000000000011c0       0x30 /teamspace/studios/this_studio/AI-Automated-Radiology-Report/glibc-2.34/build/libc_pic.a(strlen-sse2.os)
 .debug_aranges
                0x00000000000011f0       0x30 /teamspace/studios/this_studio/AI-Automated-Radiology-Report/glibc-2.34/build/libc_pic.a(strnlen-sse2.os)
 .debug_aranges
                0x0000000000001220       0x30 /teamspace/studios/this_studio/AI-Automated-Radiology-Report/glibc-2.34/build/libc_pic.a(strlen-avx2.os)
 .debug_aranges
                0x0000000000001250       0x30 /teamspace/studios/this_studio/AI-Automated-Radiology-Report/glibc-2.34/build/libc_pic.a(strnlen-avx2.os)
 .debug_aranges
                0x0000000000001280       0x30 /teamspace/studios/this_studio/AI-Automated-Radiology-Report/glibc-2.34/build/libc_pic.a(stpcpy-sse2.os)
 .debug_aranges
                0x00000000000012b0       0x30 /teamspace/studios/this_studio/AI-Automated-Radiology-Report/glibc-2.34/build/libc_pic.a(stpcpy-ssse3.os)
 .debug_aranges
                0x00000000000012e0       0x30 /teamspace/studios/this_studio/AI-Automated-Radiology-Report/glibc-2.34/build/libc_pic.a(stpcpy-sse2-unaligned.os)
 .debug_aranges
                0x0000000000001310       0x30 /teamspace/studios/this_studio/AI-Automated-Radiology-Report/glibc-2.34/build/libc_pic.a(stpcpy-avx2.os)
 .debug_aranges
                0x0000000000001340       0x30 /teamspace/studios/this_studio/AI-Automated-Radiology-Report/glibc-2.34/build/libc_pic.a(strchr-sse2-no-bsf.os)
 .debug_aranges
                0x0000000000001370       0x30 /teamspace/studios/this_studio/AI-Automated-Radiology-Report/glibc-2.34/build/libc_pic.a(memcmp-ssse3.os)
 .debug_aranges
                0x00000000000013a0       0x30 /teamspace/studios/this_studio/AI-Automated-Radiology-Report/glibc-2.34/build/libc_pic.a(strcspn-sse2.os)
 .debug_aranges
                0x00000000000013d0       0x30 /teamspace/studios/this_studio/AI-Automated-Radiology-Report/glibc-2.34/build/libc_pic.a(strcspn-c.os)
 .debug_aranges
                0x0000000000001400       0x20 /teamspace/studios/this_studio/AI-Automated-Radiology-Report/glibc-2.34/build/libc_pic.a(varshift.os)
 .debug_aranges
                0x0000000000001420       0x30 /teamspace/studios/this_studio/AI-Automated-Radiology-Report/glibc-2.34/build/libc_pic.a(memset-avx512-no-vzeroupper.os)
 .debug_aranges
                0x0000000000001450       0x30 /teamspace/studios/this_studio/AI-Automated-Radiology-Report/glibc-2.34/build/libc_pic.a(memmove-sse2-unaligned-erms.os)
 .debug_aranges
                0x0000000000001480       0x30 /teamspace/studios/this_studio/AI-Automated-Radiology-Report/glibc-2.34/build/libc_pic.a(memmove-avx-unaligned-erms.os)
 .debug_aranges
                0x00000000000014b0       0x30 /teamspace/studios/this_studio/AI-Automated-Radiology-Report/glibc-2.34/build/libc_pic.a(memmove-avx512-unaligned-erms.os)
 .debug_aranges
                0x00000000000014e0       0x30 /teamspace/studios/this_studio/AI-Automated-Radiology-Report/glibc-2.34/build/libc_pic.a(memset-sse2-unaligned-erms.os)
 .debug_aranges
                0x0000000000001510       0x30 /teamspace/studios/this_studio/AI-Automated-Radiology-Report/glibc-2.34/build/libc_pic.a(memset-avx2-unaligned-erms.os)
 .debug_aranges
                0x0000000000001540       0x30 /teamspace/studios/this_studio/AI-Automated-Radiology-Report/glibc-2.34/build/libc_pic.a(memset-avx512-unaligned-erms.os)
 .debug_aranges
                0x0000000000001570       0x30 /teamspace/studios/this_studio/AI-Automated-Radiology-Report/glibc-2.34/build/libc_pic.a(memchr-avx2-rtm.os)
 .debug_aranges
                0x00000000000015a0       0x30 /teamspace/studios/this_studio/AI-Automated-Radiology-Report/glibc-2.34/build/libc_pic.a(memcmp-avx2-movbe-rtm.os)
 .debug_aranges
                0x00000000000015d0       0x30 /teamspace/studios/this_studio/AI-Automated-Radiology-Report/glibc-2.34/build/libc_pic.a(memmove-avx-unaligned-erms-rtm.os)
 .debug_aranges
                0x0000000000001600       0x30 /teamspace/studios/this_studio/AI-Automated-Radiology-Report/glibc-2.34/build/libc_pic.a(memset-avx2-unaligned-erms-rtm.os)
 .debug_aranges
                0x0000000000001630       0x30 /teamspace/studios/this_studio/AI-Automated-Radiology-Report/glibc-2.34/build/libc_pic.a(rawmemchr-avx2-rtm.os)
 .debug_aranges
                0x0000000000001660       0x30 /teamspace/studios/this_studio/AI-Automated-Radiology-Report/glibc-2.34/build/libc_pic.a(strchr-avx2-rtm.os)
 .debug_aranges
                0x0000000000001690       0x30 /teamspace/studios/this_studio/AI-Automated-Radiology-Report/glibc-2.34/build/libc_pic.a(strcmp-avx2-rtm.os)
 .debug_aranges
                0x00000000000016c0       0x30 /teamspace/studios/this_studio/AI-Automated-Radiology-Report/glibc-2.34/build/libc_pic.a(stpcpy-avx2-rtm.os)
 .debug_aranges
                0x00000000000016f0       0x30 /teamspace/studios/this_studio/AI-Automated-Radiology-Report/glibc-2.34/build/libc_pic.a(strlen-avx2-rtm.os)
 .debug_aranges
                0x0000000000001720       0x30 /teamspace/studios/this_studio/AI-Automated-Radiology-Report/glibc-2.34/build/libc_pic.a(strncmp-avx2-rtm.os)
 .debug_aranges
                0x0000000000001750       0x30 /teamspace/studios/this_studio/AI-Automated-Radiology-Report/glibc-2.34/build/libc_pic.a(strnlen-avx2-rtm.os)
 .debug_aranges
                0x0000000000001780       0x30 /teamspace/studios/this_studio/AI-Automated-Radiology-Report/glibc-2.34/build/libc_pic.a(memchr-evex.os)
 .debug_aranges
                0x00000000000017b0       0x30 /teamspace/studios/this_studio/AI-Automated-Radiology-Report/glibc-2.34/build/libc_pic.a(memcmp-evex-movbe.os)
 .debug_aranges
                0x00000000000017e0       0x30 /teamspace/studios/this_studio/AI-Automated-Radiology-Report/glibc-2.34/build/libc_pic.a(memmove-evex-unaligned-erms.os)
 .debug_aranges
                0x0000000000001810       0x30 /teamspace/studios/this_studio/AI-Automated-Radiology-Report/glibc-2.34/build/libc_pic.a(memset-evex-unaligned-erms.os)
 .debug_aranges
                0x0000000000001840       0x30 /teamspace/studios/this_studio/AI-Automated-Radiology-Report/glibc-2.34/build/libc_pic.a(rawmemchr-evex.os)
 .debug_aranges
                0x0000000000001870       0x30 /teamspace/studios/this_studio/AI-Automated-Radiology-Report/glibc-2.34/build/libc_pic.a(stpcpy-evex.os)
 .debug_aranges
                0x00000000000018a0       0x30 /teamspace/studios/this_studio/AI-Automated-Radiology-Report/glibc-2.34/build/libc_pic.a(strchr-evex.os)
 .debug_aranges
                0x00000000000018d0       0x30 /teamspace/studios/this_studio/AI-Automated-Radiology-Report/glibc-2.34/build/libc_pic.a(strcmp-evex.os)
 .debug_aranges
                0x0000000000001900       0x30 /teamspace/studios/this_studio/AI-Automated-Radiology-Report/glibc-2.34/build/libc_pic.a(strlen-evex.os)
 .debug_aranges
                0x0000000000001930       0x30 /teamspace/studios/this_studio/AI-Automated-Radiology-Report/glibc-2.34/build/libc_pic.a(strncmp-evex.os)
 .debug_aranges
                0x0000000000001960       0x30 /teamspace/studios/this_studio/AI-Automated-Radiology-Report/glibc-2.34/build/libc_pic.a(strnlen-evex.os)
 .debug_aranges
                0x0000000000001990       0x30 /teamspace/studios/this_studio/AI-Automated-Radiology-Report/glibc-2.34/build/libc_pic.a(memchr-evex-rtm.os)
 .debug_aranges
                0x00000000000019c0       0x30 /teamspace/studios/this_studio/AI-Automated-Radiology-Report/glibc-2.34/build/libc_pic.a(rawmemchr-evex-rtm.os)
 .debug_aranges
                0x00000000000019f0       0x30 /teamspace/studios/this_studio/AI-Automated-Radiology-Report/glibc-2.34/build/libc_pic.a(cacheinfo.os)
 .debug_aranges
                0x0000000000001a20       0x30 /teamspace/studios/this_studio/AI-Automated-Radiology-Report/glibc-2.34/build/libc_pic.a(closedir.os)
 .debug_aranges
                0x0000000000001a50       0x30 /teamspace/studios/this_studio/AI-Automated-Radiology-Report/glibc-2.34/build/libc_pic.a(rewinddir.os)
 .debug_aranges
                0x0000000000001a80       0x30 /teamspace/studios/this_studio/AI-Automated-Radiology-Report/glibc-2.34/build/libc_pic.a(readdir64.os)
 .debug_aranges
                0x0000000000001ab0       0x30 /teamspace/studios/this_studio/AI-Automated-Radiology-Report/glibc-2.34/build/libc_pic.a(fdopendir.os)
 .debug_aranges
                0x0000000000001ae0       0x30 /teamspace/studios/this_studio/AI-Automated-Radiology-Report/glibc-2.34/build/libc_pic.a(uname.os)
 .debug_aranges
                0x0000000000001b10       0x30 /teamspace/studios/this_studio/AI-Automated-Radiology-Report/glibc-2.34/build/libc_pic.a(_exit.os)
 .debug_aranges
                0x0000000000001b40       0x30 /teamspace/studios/this_studio/AI-Automated-Radiology-Report/glibc-2.34/build/libc_pic.a(getpid.os)
 .debug_aranges
                0x0000000000001b70       0x20 /teamspace/studios/this_studio/AI-Automated-Radiology-Report/glibc-2.34/build/libc_pic.a(environ.os)
 .debug_aranges
                0x0000000000001b90       0x30 /teamspace/studios/this_studio/AI-Automated-Radiology-Report/glibc-2.34/build/libc_pic.a(stat64.os)
 .debug_aranges
                0x0000000000001bc0       0x30 /teamspace/studios/this_studio/AI-Automated-Radiology-Report/glibc-2.34/build/libc_pic.a(fstat64.os)
 .debug_aranges
                0x0000000000001bf0       0x30 /teamspace/studios/this_studio/AI-Automated-Radiology-Report/glibc-2.34/build/libc_pic.a(lstat64.os)
 .debug_aranges
                0x0000000000001c20       0x30 /teamspace/studios/this_studio/AI-Automated-Radiology-Report/glibc-2.34/build/libc_pic.a(fstatat64.os)
 .debug_aranges
                0x0000000000001c50       0x30 /teamspace/studios/this_studio/AI-Automated-Radiology-Report/glibc-2.34/build/libc_pic.a(openat64.os)
 .debug_aranges
                0x0000000000001c80       0x30 /teamspace/studios/this_studio/AI-Automated-Radiology-Report/glibc-2.34/build/libc_pic.a(lseek64.os)
 .debug_aranges
                0x0000000000001cb0       0x30 /teamspace/studios/this_studio/AI-Automated-Radiology-Report/glibc-2.34/build/libc_pic.a(access.os)
 .debug_aranges
                0x0000000000001ce0       0x30 /teamspace/studios/this_studio/AI-Automated-Radiology-Report/glibc-2.34/build/libc_pic.a(close_nocancel.os)
 .debug_aranges
                0x0000000000001d10       0x30 /teamspace/studios/this_studio/AI-Automated-Radiology-Report/glibc-2.34/build/libc_pic.a(fcntl_nocancel.os)
 .debug_aranges
                0x0000000000001d40       0x30 /teamspace/studios/this_studio/AI-Automated-Radiology-Report/glibc-2.34/build/libc_pic.a(open64_nocancel.os)
 .debug_aranges
                0x0000000000001d70       0x30 /teamspace/studios/this_studio/AI-Automated-Radiology-Report/glibc-2.34/build/libc_pic.a(read_nocancel.os)
 .debug_aranges
                0x0000000000001da0       0x30 /teamspace/studios/this_studio/AI-Automated-Radiology-Report/glibc-2.34/build/libc_pic.a(pread64_nocancel.os)
 .debug_aranges
                0x0000000000001dd0       0x30 /teamspace/studios/this_studio/AI-Automated-Radiology-Report/glibc-2.34/build/libc_pic.a(write_nocancel.os)
 .debug_aranges
                0x0000000000001e00       0x30 /teamspace/studios/this_studio/AI-Automated-Radiology-Report/glibc-2.34/build/libc_pic.a(mmap64.os)
 .debug_aranges
                0x0000000000001e30       0x30 /teamspace/studios/this_studio/AI-Automated-Radiology-Report/glibc-2.34/build/libc_pic.a(munmap.os)
 .debug_aranges
                0x0000000000001e60       0x30 /teamspace/studios/this_studio/AI-Automated-Radiology-Report/glibc-2.34/build/libc_pic.a(mprotect.os)
 .debug_aranges
                0x0000000000001e90       0x30 /teamspace/studios/this_studio/AI-Automated-Radiology-Report/glibc-2.34/build/libc_pic.a(profil.os)
 .debug_aranges
                0x0000000000001ec0       0x30 /teamspace/studios/this_studio/AI-Automated-Radiology-Report/glibc-2.34/build/libc_pic.a(prof-freq.os)
 .debug_aranges
                0x0000000000001ef0       0x30 /teamspace/studios/this_studio/AI-Automated-Radiology-Report/glibc-2.34/build/libc_pic.a(dl-addr-obj.os)
 .debug_aranges
                0x0000000000001f20       0x30 /teamspace/studios/this_studio/AI-Automated-Radiology-Report/glibc-2.34/build/libc_pic.a(sigaction.os)
 .debug_aranges
                0x0000000000001f50       0x30 /teamspace/studios/this_studio/AI-Automated-Radiology-Report/glibc-2.34/build/libc_pic.a(libc_sigaction.os)
 .debug_aranges
                0x0000000000001f80       0x30 /teamspace/studios/this_studio/AI-Automated-Radiology-Report/glibc-2.34/build/libc_pic.a(setitimer.os)
 .debug_aranges
                0x0000000000001fb0       0x30 /teamspace/studios/this_studio/AI-Automated-Radiology-Report/glibc-2.34/build/libc_pic.a(getdents64.os)

.debug_pubnames
 *(.debug_pubnames)

.debug_info     0x0000000000000000    0xfc896
 *(.debug_info)
 .debug_info    0x0000000000000000    0xb680b /teamspace/studios/this_studio/AI-Automated-Radiology-Report/glibc-2.34/build/elf/dl-allobjs.os
 .debug_info    0x00000000000b680b      0xc76 /teamspace/studios/this_studio/AI-Automated-Radiology-Report/glibc-2.34/build/libc_pic.a(check_fds.os)
 .debug_info    0x00000000000b7481      0x81f /teamspace/studios/this_studio/AI-Automated-Radiology-Report/glibc-2.34/build/libc_pic.a(errno.os)
 .debug_info    0x00000000000b7ca0       0x2e /teamspace/studios/this_studio/AI-Automated-Radiology-Report/glibc-2.34/build/libc_pic.a(setjmp.os)
 .debug_info    0x00000000000b7cce       0x2e /teamspace/studios/this_studio/AI-Automated-Radiology-Report/glibc-2.34/build/libc_pic.a(__longjmp.os)
 .debug_info    0x00000000000b7cfc     0x1467 /teamspace/studios/this_studio/AI-Automated-Radiology-Report/glibc-2.34/build/libc_pic.a(lowlevellock.os)
 .debug_info    0x00000000000b9163      0x472 /teamspace/studios/this_studio/AI-Automated-Radiology-Report/glibc-2.34/build/libc_pic.a(scratch_buffer_set_array_size.os)
 .debug_info    0x00000000000b95d5     0x2e0e /teamspace/studios/this_studio/AI-Automated-Radiology-Report/glibc-2.34/build/libc_pic.a(strchr.os)
 .debug_info    0x00000000000bc3e3     0x2e0e /teamspace/studios/this_studio/AI-Automated-Radiology-Report/glibc-2.34/build/libc_pic.a(strcmp.os)
 .debug_info    0x00000000000bf1f1     0x2d1e /teamspace/studios/this_studio/AI-Automated-Radiology-Report/glibc-2.34/build/libc_pic.a(strcspn.os)
 .debug_info    0x00000000000c1f0f      0x2f1 /teamspace/studios/this_studio/AI-Automated-Radiology-Report/glibc-2.34/build/libc_pic.a(strdup.os)
 .debug_info    0x00000000000c2200     0x2e09 /teamspace/studios/this_studio/AI-Automated-Radiology-Report/glibc-2.34/build/libc_pic.a(strlen.os)
 .debug_info    0x00000000000c5009     0x2e0e /teamspace/studios/this_studio/AI-Automated-Radiology-Report/glibc-2.34/build/libc_pic.a(strnlen.os)
 .debug_info    0x00000000000c7e17     0x2e13 /teamspace/studios/this_studio/AI-Automated-Radiology-Report/glibc-2.34/build/libc_pic.a(strncmp.os)
 .debug_info    0x00000000000cac2a     0x2e13 /teamspace/studios/this_studio/AI-Automated-Radiology-Report/glibc-2.34/build/libc_pic.a(memchr.os)
 .debug_info    0x00000000000cda3d     0x2e13 /teamspace/studios/this_studio/AI-Automated-Radiology-Report/glibc-2.34/build/libc_pic.a(memcmp.os)
 .debug_info    0x00000000000d0850     0x2e13 /teamspace/studios/this_studio/AI-Automated-Radiology-Report/glibc-2.34/build/libc_pic.a(memmove.os)
 .debug_info    0x00000000000d3663     0x2e13 /teamspace/studios/this_studio/AI-Automated-Radiology-Report/glibc-2.34/build/libc_pic.a(memset.os)
 .debug_info    0x00000000000d6476     0x2e1d /teamspace/studios/this_studio/AI-Automated-Radiology-Report/glibc-2.34/build/libc_pic.a(mempcpy.os)
 .debug_info    0x00000000000d9293     0x2e18 /teamspace/studios/this_studio/AI-Automated-Radiology-Report/glibc-2.34/build/libc_pic.a(stpcpy.os)
 .debug_info    0x00000000000dc0ab     0x2e1d /teamspace/studios/this_studio/AI-Automated-Radiology-Report/glibc-2.34/build/libc_pic.a(memcpy.os)
 .debug_info    0x00000000000deec8     0x2e0e /teamspace/studios/this_studio/AI-Automated-Radiology-Report/glibc-2.34/build/libc_pic.a(rawmemchr.os)
 .debug_info    0x00000000000e1cd6       0x2e /teamspace/studios/this_studio/AI-Automated-Radiology-Report/glibc-2.34/build/libc_pic.a(strcmp-sse2.os)
 .debug_info    0x00000000000e1d04       0x2e /teamspace/studios/this_studio/AI-Automated-Radiology-Report/glibc-2.34/build/libc_pic.a(strcmp-sse2-unaligned.os)
 .debug_info    0x00000000000e1d32       0x2e /teamspace/studios/this_studio/AI-Automated-Radiology-Report/glibc-2.34/build/libc_pic.a(strcmp-ssse3.os)
 .debug_info    0x00000000000e1d60       0x2e /teamspace/studios/this_studio/AI-Automated-Radiology-Report/glibc-2.34/build/libc_pic.a(strcmp-avx2.os)
 .debug_info    0x00000000000e1d8e       0x2e /teamspace/studios/this_studio/AI-Automated-Radiology-Report/glibc-2.34/build/libc_pic.a(strncmp-sse2.os)
 .debug_info    0x00000000000e1dbc       0x2e /teamspace/studios/this_studio/AI-Automated-Radiology-Report/glibc-2.34/build/libc_pic.a(strncmp-ssse3.os)
 .debug_info    0x00000000000e1dea       0x2e /teamspace/studios/this_studio/AI-Automated-Radiology-Report/glibc-2.34/build/libc_pic.a(strncmp-sse4_2.os)
 .debug_info    0x00000000000e1e18       0x2e /teamspace/studios/this_studio/AI-Automated-Radiology-Report/glibc-2.34/build/libc_pic.a(strncmp-avx2.os)
 .debug_info    0x00000000000e1e46       0x2e /teamspace/studios/this_studio/AI-Automated-Radiology-Report/glibc-2.34/build/libc_pic.a(memchr-sse2.os)
 .debug_info    0x00000000000e1e74       0x2e /teamspace/studios/this_studio/AI-Automated-Radiology-Report/glibc-2.34/build/libc_pic.a(rawmemchr-sse2.os)
 .debug_info    0x00000000000e1ea2       0x2e /teamspace/studios/this_studio/AI-Automated-Radiology-Report/glibc-2.34/build/libc_pic.a(memchr-avx2.os)
 .debug_info    0x00000000000e1ed0       0x2e /teamspace/studios/this_studio/AI-Automated-Radiology-Report/glibc-2.34/build/libc_pic.a(rawmemchr-avx2.os)
 .debug_info    0x00000000000e1efe       0x2e /teamspace/studios/this_studio/AI-Automated-Radiology-Report/glibc-2.34/build/libc_pic.a(memcmp-sse2.os)
 .debug_info    0x00000000000e1f2c       0x2e /teamspace/studios/this_studio/AI-Automated-Radiology-Report/glibc-2.34/build/libc_pic.a(memcmp-avx2-movbe.os)
 .debug_info    0x00000000000e1f5a       0x2e /teamspace/studios/this_studio/AI-Automated-Radiology-Report/glibc-2.34/build/libc_pic.a(memcmp-sse4.os)
 .debug_info    0x00000000000e1f88       0x2e /teamspace/studios/this_studio/AI-Automated-Radiology-Report/glibc-2.34/build/libc_pic.a(memcpy-ssse3.os)
 .debug_info    0x00000000000e1fb6       0x2e /teamspace/studios/this_studio/AI-Automated-Radiology-Report/glibc-2.34/build/libc_pic.a(memmove-ssse3.os)
 .debug_info    0x00000000000e1fe4       0x2e /teamspace/studios/this_studio/AI-Automated-Radiology-Report/glibc-2.34/build/libc_pic.a(memcpy-ssse3-back.os)
 .debug_info    0x00000000000e2012       0x2e /teamspace/studios/this_studio/AI-Automated-Radiology-Report/glibc-2.34/build/libc_pic.a(memmove-ssse3-back.os)
 .debug_info    0x00000000000e2040       0x2e /teamspace/studios/this_studio/AI-Automated-Radiology-Report/glibc-2.34/build/libc_pic.a(memmove-avx512-no-vzeroupper.os)
 .debug_info    0x00000000000e206e       0x2e /teamspace/studios/this_studio/AI-Automated-Radiology-Report/glibc-2.34/build/libc_pic.a(strchr-sse2.os)
 .debug_info    0x00000000000e209c       0x2e /teamspace/studios/this_studio/AI-Automated-Radiology-Report/glibc-2.34/build/libc_pic.a(strchr-avx2.os)
 .debug_info    0x00000000000e20ca       0x2e /teamspace/studios/this_studio/AI-Automated-Radiology-Report/glibc-2.34/build/libc_pic.a(strlen-sse2.os)
 .debug_info    0x00000000000e20f8       0x2e /teamspace/studios/this_studio/AI-Automated-Radiology-Report/glibc-2.34/build/libc_pic.a(strnlen-sse2.os)
 .debug_info    0x00000000000e2126       0x2e /teamspace/studios/this_studio/AI-Automated-Radiology-Report/glibc-2.34/build/libc_pic.a(strlen-avx2.os)
 .debug_info    0x00000000000e2154       0x2e /teamspace/studios/this_studio/AI-Automated-Radiology-Report/glibc-2.34/build/libc_pic.a(strnlen-avx2.os)
 .debug_info    0x00000000000e2182       0x2e /teamspace/studios/this_studio/AI-Automated-Radiology-Report/glibc-2.34/build/libc_pic.a(stpcpy-sse2.os)
 .debug_info    0x00000000000e21b0       0x2e /teamspace/studios/this_studio/AI-Automated-Radiology-Report/glibc-2.34/build/libc_pic.a(stpcpy-ssse3.os)
 .debug_info    0x00000000000e21de       0x2e /teamspace/studios/this_studio/AI-Automated-Radiology-Report/glibc-2.34/build/libc_pic.a(stpcpy-sse2-unaligned.os)
 .debug_info    0x00000000000e220c       0x2e /teamspace/studios/this_studio/AI-Automated-Radiology-Report/glibc-2.34/build/libc_pic.a(stpcpy-avx2.os)
 .debug_info    0x00000000000e223a       0x2e /teamspace/studios/this_studio/AI-Automated-Radiology-Report/glibc-2.34/build/libc_pic.a(strchr-sse2-no-bsf.os)
 .debug_info    0x00000000000e2268       0x2e /teamspace/studios/this_studio/AI-Automated-Radiology-Report/glibc-2.34/build/libc_pic.a(memcmp-ssse3.os)
 .debug_info    0x00000000000e2296       0x2e /teamspace/studios/this_studio/AI-Automated-Radiology-Report/glibc-2.34/build/libc_pic.a(strcspn-sse2.os)
 .debug_info    0x00000000000e22c4      0xa85 /teamspace/studios/this_studio/AI-Automated-Radiology-Report/glibc-2.34/build/libc_pic.a(strcspn-c.os)
 .debug_info    0x00000000000e2d49      0x193 /teamspace/studios/this_studio/AI-Automated-Radiology-Report/glibc-2.34/build/libc_pic.a(varshift.os)
 .debug_info    0x00000000000e2edc       0x2e /teamspace/studios/this_studio/AI-Automated-Radiology-Report/glibc-2.34/build/libc_pic.a(memset-avx512-no-vzeroupper.os)
 .debug_info    0x00000000000e2f0a       0x2e /teamspace/studios/this_studio/AI-Automated-Radiology-Report/glibc-2.34/build/libc_pic.a(memmove-sse2-unaligned-erms.os)
 .debug_info    0x00000000000e2f38       0x2e /teamspace/studios/this_studio/AI-Automated-Radiology-Report/glibc-2.34/build/libc_pic.a(memmove-avx-unaligned-erms.os)
 .debug_info    0x00000000000e2f66       0x2e /teamspace/studios/this_studio/AI-Automated-Radiology-Report/glibc-2.34/build/libc_pic.a(memmove-avx512-unaligned-erms.os)
 .debug_info    0x00000000000e2f94       0x2e /teamspace/studios/this_studio/AI-Automated-Radiology-Report/glibc-2.34/build/libc_pic.a(memset-sse2-unaligned-erms.os)
 .debug_info    0x00000000000e2fc2       0x2e /teamspace/studios/this_studio/AI-Automated-Radiology-Report/glibc-2.34/build/libc_pic.a(memset-avx2-unaligned-erms.os)
 .debug_info    0x00000000000e2ff0       0x2e /teamspace/studios/this_studio/AI-Automated-Radiology-Report/glibc-2.34/build/libc_pic.a(memset-avx512-unaligned-erms.os)
 .debug_info    0x00000000000e301e       0x2e /teamspace/studios/this_studio/AI-Automated-Radiology-Report/glibc-2.34/build/libc_pic.a(memchr-avx2-rtm.os)
 .debug_info    0x00000000000e304c       0x2e /teamspace/studios/this_studio/AI-Automated-Radiology-Report/glibc-2.34/build/libc_pic.a(memcmp-avx2-movbe-rtm.os)
 .debug_info    0x00000000000e307a       0x2e /teamspace/studios/this_studio/AI-Automated-Radiology-Report/glibc-2.34/build/libc_pic.a(memmove-avx-unaligned-erms-rtm.os)
 .debug_info    0x00000000000e30a8       0x2e /teamspace/studios/this_studio/AI-Automated-Radiology-Report/glibc-2.34/build/libc_pic.a(memset-avx2-unaligned-erms-rtm.os)
 .debug_info    0x00000000000e30d6       0x2e /teamspace/studios/this_studio/AI-Automated-Radiology-Report/glibc-2.34/build/libc_pic.a(rawmemchr-avx2-rtm.os)
 .debug_info    0x00000000000e3104       0x2e /teamspace/studios/this_studio/AI-Automated-Radiology-Report/glibc-2.34/build/libc_pic.a(strchr-avx2-rtm.os)
 .debug_info    0x00000000000e3132       0x2e /teamspace/studios/this_studio/AI-Automated-Radiology-Report/glibc-2.34/build/libc_pic.a(strcmp-avx2-rtm.os)
 .debug_info    0x00000000000e3160       0x2e /teamspace/studios/this_studio/AI-Automated-Radiology-Report/glibc-2.34/build/libc_pic.a(stpcpy-avx2-rtm.os)
 .debug_info    0x00000000000e318e       0x2e /teamspace/studios/this_studio/AI-Automated-Radiology-Report/glibc-2.34/build/libc_pic.a(strlen-avx2-rtm.os)
 .debug_info    0x00000000000e31bc       0x2e /teamspace/studios/this_studio/AI-Automated-Radiology-Report/glibc-2.34/build/libc_pic.a(strncmp-avx2-rtm.os)
 .debug_info    0x00000000000e31ea       0x2e /teamspace/studios/this_studio/AI-Automated-Radiology-Report/glibc-2.34/build/libc_pic.a(strnlen-avx2-rtm.os)
 .debug_info    0x00000000000e3218       0x2e /teamspace/studios/this_studio/AI-Automated-Radiology-Report/glibc-2.34/build/libc_pic.a(memchr-evex.os)
 .debug_info    0x00000000000e3246       0x2e /teamspace/studios/this_studio/AI-Automated-Radiology-Report/glibc-2.34/build/libc_pic.a(memcmp-evex-movbe.os)
 .debug_info    0x00000000000e3274       0x2e /teamspace/studios/this_studio/AI-Automated-Radiology-Report/glibc-2.34/build/libc_pic.a(memmove-evex-unaligned-erms.os)
 .debug_info    0x00000000000e32a2       0x2e /teamspace/studios/this_studio/AI-Automated-Radiology-Report/glibc-2.34/build/libc_pic.a(memset-evex-unaligned-erms.os)
 .debug_info    0x00000000000e32d0       0x2e /teamspace/studios/this_studio/AI-Automated-Radiology-Report/glibc-2.34/build/libc_pic.a(rawmemchr-evex.os)
 .debug_info    0x00000000000e32fe       0x2e /teamspace/studios/this_studio/AI-Automated-Radiology-Report/glibc-2.34/build/libc_pic.a(stpcpy-evex.os)
 .debug_info    0x00000000000e332c       0x2e /teamspace/studios/this_studio/AI-Automated-Radiology-Report/glibc-2.34/build/libc_pic.a(strchr-evex.os)
 .debug_info    0x00000000000e335a       0x2e /teamspace/studios/this_studio/AI-Automated-Radiology-Report/glibc-2.34/build/libc_pic.a(strcmp-evex.os)
 .debug_info    0x00000000000e3388       0x2e /teamspace/studios/this_studio/AI-Automated-Radiology-Report/glibc-2.34/build/libc_pic.a(strlen-evex.os)
 .debug_info    0x00000000000e33b6       0x2e /teamspace/studios/this_studio/AI-Automated-Radiology-Report/glibc-2.34/build/libc_pic.a(strncmp-evex.os)
 .debug_info    0x00000000000e33e4       0x2e /teamspace/studios/this_studio/AI-Automated-Radiology-Report/glibc-2.34/build/libc_pic.a(strnlen-evex.os)
 .debug_info    0x00000000000e3412       0x2e /teamspace/studios/this_studio/AI-Automated-Radiology-Report/glibc-2.34/build/libc_pic.a(memchr-evex-rtm.os)
 .debug_info    0x00000000000e3440       0x2e /teamspace/studios/this_studio/AI-Automated-Radiology-Report/glibc-2.34/build/libc_pic.a(rawmemchr-evex-rtm.os)
 .debug_info    0x00000000000e346e     0x35ae /teamspace/studios/this_studio/AI-Automated-Radiology-Report/glibc-2.34/build/libc_pic.a(cacheinfo.os)
 .debug_info    0x00000000000e6a1c      0x9d8 /teamspace/studios/this_studio/AI-Automated-Radiology-Report/glibc-2.34/build/libc_pic.a(closedir.os)
 .debug_info    0x00000000000e73f4      0xa99 /teamspace/studios/this_studio/AI-Automated-Radiology-Report/glibc-2.34/build/libc_pic.a(rewinddir.os)
 .debug_info    0x00000000000e7e8d      0xb3f /teamspace/studios/this_studio/AI-Automated-Radiology-Report/glibc-2.34/build/libc_pic.a(readdir64.os)
 .debug_info    0x00000000000e89cc      0xba8 /teamspace/studios/this_studio/AI-Automated-Radiology-Report/glibc-2.34/build/libc_pic.a(fdopendir.os)
 .debug_info    0x00000000000e9574       0x2e /teamspace/studios/this_studio/AI-Automated-Radiology-Report/glibc-2.34/build/libc_pic.a(uname.os)
 .debug_info    0x00000000000e95a2      0x95c /teamspace/studios/this_studio/AI-Automated-Radiology-Report/glibc-2.34/build/libc_pic.a(_exit.os)
 .debug_info    0x00000000000e9efe       0x2e /teamspace/studios/this_studio/AI-Automated-Radiology-Report/glibc-2.34/build/libc_pic.a(getpid.os)
 .debug_info    0x00000000000e9f2c       0xff /teamspace/studios/this_studio/AI-Automated-Radiology-Report/glibc-2.34/build/libc_pic.a(environ.os)
 .debug_info    0x00000000000ea02b      0x299 /teamspace/studios/this_studio/AI-Automated-Radiology-Report/glibc-2.34/build/libc_pic.a(stat64.os)
 .debug_info    0x00000000000ea2c4      0x2c0 /teamspace/studios/this_studio/AI-Automated-Radiology-Report/glibc-2.34/build/libc_pic.a(fstat64.os)
 .debug_info    0x00000000000ea584      0x29b /teamspace/studios/this_studio/AI-Automated-Radiology-Report/glibc-2.34/build/libc_pic.a(lstat64.os)
 .debug_info    0x00000000000ea81f      0xbb7 /teamspace/studios/this_studio/AI-Automated-Radiology-Report/glibc-2.34/build/libc_pic.a(fstatat64.os)
 .debug_info    0x00000000000eb3d6     0x172a /teamspace/studios/this_studio/AI-Automated-Radiology-Report/glibc-2.34/build/libc_pic.a(openat64.os)
 .debug_info    0x00000000000ecb00      0x985 /teamspace/studios/this_studio/AI-Automated-Radiology-Report/glibc-2.34/build/libc_pic.a(lseek64.os)
 .debug_info    0x00000000000ed485      0x948 /teamspace/studios/this_studio/AI-Automated-Radiology-Report/glibc-2.34/build/libc_pic.a(access.os)
 .debug_info    0x00000000000eddcd      0x917 /teamspace/studios/this_studio/AI-Automated-Radiology-Report/glibc-2.34/build/libc_pic.a(close_nocancel.os)
 .debug_info    0x00000000000ee6e4      0xc52 /teamspace/studios/this_studio/AI-Automated-Radiology-Report/glibc-2.34/build/libc_pic.a(fcntl_nocancel.os)
 .debug_info    0x00000000000ef336      0xa43 /teamspace/studios/this_studio/AI-Automated-Radiology-Report/glibc-2.34/build/libc_pic.a(open64_nocancel.os)
 .debug_info    0x00000000000efd79      0x9a3 /teamspace/studios/this_studio/AI-Automated-Radiology-Report/glibc-2.34/build/libc_pic.a(read_nocancel.os)
 .debug_info    0x00000000000f071c      0x9e5 /teamspace/studios/this_studio/AI-Automated-Radiology-Report/glibc-2.34/build/libc_pic.a(pread64_nocancel.os)
 .debug_info    0x00000000000f1101      0x9a8 /teamspace/studios/this_studio/AI-Automated-Radiology-Report/glibc-2.34/build/libc_pic.a(write_nocancel.os)
 .debug_info    0x00000000000f1aa9     0x31ba /teamspace/studios/this_studio/AI-Automated-Radiology-Report/glibc-2.34/build/libc_pic.a(mmap64.os)
 .debug_info    0x00000000000f4c63       0x2e /teamspace/studios/this_studio/AI-Automated-Radiology-Report/glibc-2.34/build/libc_pic.a(munmap.os)
 .debug_info    0x00000000000f4c91       0x2e /teamspace/studios/this_studio/AI-Automated-Radiology-Report/glibc-2.34/build/libc_pic.a(mprotect.os)
 .debug_info    0x00000000000f4cbf      0xdf4 /teamspace/studios/this_studio/AI-Automated-Radiology-Report/glibc-2.34/build/libc_pic.a(profil.os)
 .debug_info    0x00000000000f5ab3     0x2c6e /teamspace/studios/this_studio/AI-Automated-Radiology-Report/glibc-2.34/build/libc_pic.a(prof-freq.os)
 .debug_info    0x00000000000f8721     0x1357 /teamspace/studios/this_studio/AI-Automated-Radiology-Report/glibc-2.34/build/libc_pic.a(dl-addr-obj.os)
 .debug_info    0x00000000000f9a78      0xdd2 /teamspace/studios/this_studio/AI-Automated-Radiology-Report/glibc-2.34/build/libc_pic.a(sigaction.os)
 .debug_info    0x00000000000fa84a      0xd5f /teamspace/studios/this_studio/AI-Automated-Radiology-Report/glibc-2.34/build/libc_pic.a(libc_sigaction.os)
 .debug_info    0x00000000000fb5a9      0x9be /teamspace/studios/this_studio/AI-Automated-Radiology-Report/glibc-2.34/build/libc_pic.a(setitimer.os)
 .debug_info    0x00000000000fbf67      0x92f /teamspace/studios/this_studio/AI-Automated-Radiology-Report/glibc-2.34/build/libc_pic.a(getdents64.os)

.debug_abbrev   0x0000000000000000    0x198fa
 *(.debug_abbrev)
 .debug_abbrev  0x0000000000000000    0x11067 /teamspace/studios/this_studio/AI-Automated-Radiology-Report/glibc-2.34/build/elf/dl-allobjs.os
 .debug_abbrev  0x0000000000011067      0x26f /teamspace/studios/this_studio/AI-Automated-Radiology-Report/glibc-2.34/build/libc_pic.a(check_fds.os)
 .debug_abbrev  0x00000000000112d6      0x167 /teamspace/studios/this_studio/AI-Automated-Radiology-Report/glibc-2.34/build/libc_pic.a(errno.os)
 .debug_abbrev  0x000000000001143d       0x14 /teamspace/studios/this_studio/AI-Automated-Radiology-Report/glibc-2.34/build/libc_pic.a(setjmp.os)
 .debug_abbrev  0x0000000000011451       0x14 /teamspace/studios/this_studio/AI-Automated-Radiology-Report/glibc-2.34/build/libc_pic.a(__longjmp.os)
 .debug_abbrev  0x0000000000011465      0x31a /teamspace/studios/this_studio/AI-Automated-Radiology-Report/glibc-2.34/build/libc_pic.a(lowlevellock.os)
 .debug_abbrev  0x000000000001177f      0x24a /teamspace/studios/this_studio/AI-Automated-Radiology-Report/glibc-2.34/build/libc_pic.a(scratch_buffer_set_array_size.os)
 .debug_abbrev  0x00000000000119c9      0x3fc /teamspace/studios/this_studio/AI-Automated-Radiology-Report/glibc-2.34/build/libc_pic.a(strchr.os)
 .debug_abbrev  0x0000000000011dc5      0x3fc /teamspace/studios/this_studio/AI-Automated-Radiology-Report/glibc-2.34/build/libc_pic.a(strcmp.os)
 .debug_abbrev  0x00000000000121c1      0x3d2 /teamspace/studios/this_studio/AI-Automated-Radiology-Report/glibc-2.34/build/libc_pic.a(strcspn.os)
 .debug_abbrev  0x0000000000012593      0x19c /teamspace/studios/this_studio/AI-Automated-Radiology-Report/glibc-2.34/build/libc_pic.a(strdup.os)
 .debug_abbrev  0x000000000001272f      0x3fc /teamspace/studios/this_studio/AI-Automated-Radiology-Report/glibc-2.34/build/libc_pic.a(strlen.os)
 .debug_abbrev  0x0000000000012b2b      0x3fc /teamspace/studios/this_studio/AI-Automated-Radiology-Report/glibc-2.34/build/libc_pic.a(strnlen.os)
 .debug_abbrev  0x0000000000012f27      0x3fc /teamspace/studios/this_studio/AI-Automated-Radiology-Report/glibc-2.34/build/libc_pic.a(strncmp.os)
 .debug_abbrev  0x0000000000013323      0x3fc /teamspace/studios/this_studio/AI-Automated-Radiology-Report/glibc-2.34/build/libc_pic.a(memchr.os)
 .debug_abbrev  0x000000000001371f      0x3fc /teamspace/studios/this_studio/AI-Automated-Radiology-Report/glibc-2.34/build/libc_pic.a(memcmp.os)
 .debug_abbrev  0x0000000000013b1b      0x3fc /teamspace/studios/this_studio/AI-Automated-Radiology-Report/glibc-2.34/build/libc_pic.a(memmove.os)
 .debug_abbrev  0x0000000000013f17      0x3fc /teamspace/studios/this_studio/AI-Automated-Radiology-Report/glibc-2.34/build/libc_pic.a(memset.os)
 .debug_abbrev  0x0000000000014313      0x3fc /teamspace/studios/this_studio/AI-Automated-Radiology-Report/glibc-2.34/build/libc_pic.a(mempcpy.os)
 .debug_abbrev  0x000000000001470f      0x3fc /teamspace/studios/this_studio/AI-Automated-Radiology-Report/glibc-2.34/build/libc_pic.a(stpcpy.os)
 .debug_abbrev  0x0000000000014b0b      0x3fc /teamspace/studios/this_studio/AI-Automated-Radiology-Report/glibc-2.34/build/libc_pic.a(memcpy.os)
 .debug_abbrev  0x0000000000014f07      0x3fc /teamspace/studios/this_studio/AI-Automated-Radiology-Report/glibc-2.34/build/libc_pic.a(rawmemchr.os)
 .debug_abbrev  0x0000000000015303       0x14 /teamspace/studios/this_studio/AI-Automated-Radiology-Report/glibc-2.34/build/libc_pic.a(strcmp-sse2.os)
 .debug_abbrev  0x0000000000015317       0x14 /teamspace/studios/this_studio/AI-Automated-Radiology-Report/glibc-2.34/build/libc_pic.a(strcmp-sse2-unaligned.os)
 .debug_abbrev  0x000000000001532b       0x14 /teamspace/studios/this_studio/AI-Automated-Radiology-Report/glibc-2.34/build/libc_pic.a(strcmp-ssse3.os)
 .debug_abbrev  0x000000000001533f       0x14 /teamspace/studios/this_studio/AI-Automated-Radiology-Report/glibc-2.34/build/libc_pic.a(strcmp-avx2.os)
 .debug_abbrev  0x0000000000015353       0x14 /teamspace/studios/this_studio/AI-Automated-Radiology-Report/glibc-2.34/build/libc_pic.a(strncmp-sse2.os)
 .debug_abbrev  0x0000000000015367       0x14 /teamspace/studios/this_studio/AI-Automated-Radiology-Report/glibc-2.34/build/libc_pic.a(strncmp-ssse3.os)
 .debug_abbrev  0x000000000001537b       0x14 /teamspace/studios/this_studio/AI-Automated-Radiology-Report/glibc-2.34/build/libc_pic.a(strncmp-sse4_2.os)
 .debug_abbrev  0x000000000001538f       0x14 /teamspace/studios/this_studio/AI-Automated-Radiology-Report/glibc-2.34/build/libc_pic.a(strncmp-avx2.os)
 .debug_abbrev  0x00000000000153a3       0x14 /teamspace/studios/this_studio/AI-Automated-Radiology-Report/glibc-2.34/build/libc_pic.a(memchr-sse2.os)
 .debug_abbrev  0x00000000000153b7       0x14 /teamspace/studios/this_studio/AI-Automated-Radiology-Report/glibc-2.34/build/libc_pic.a(rawmemchr-sse2.os)
 .debug_abbrev  0x00000000000153cb       0x14 /teamspace/studios/this_studio/AI-Automated-Radiology-Report/glibc-2.34/build/libc_pic.a(memchr-avx2.os)
 .debug_abbrev  0x00000000000153df       0x14 /teamspace/studios/this_studio/AI-Automated-Radiology-Report/glibc-2.34/build/libc_pic.a(rawmemchr-avx2.os)
 .debug_abbrev  0x00000000000153f3       0x14 /teamspace/studios/this_studio/AI-Automated-Radiology-Report/glibc-2.34/build/libc_pic.a(memcmp-sse2.os)
 .debug_abbrev  0x0000000000015407       0x14 /teamspace/studios/this_studio/AI-Automated-Radiology-Report/glibc-2.34/build/libc_pic.a(memcmp-avx2-movbe.os)
 .debug_abbrev  0x000000000001541b       0x14 /teamspace/studios/this_studio/AI-Automated-Radiology-Report/glibc-2.34/build/libc_pic.a(memcmp-sse4.os)
 .debug_abbrev  0x000000000001542f       0x14 /teamspace/studios/this_studio/AI-Automated-Radiology-Report/glibc-2.34/build/libc_pic.a(memcpy-ssse3.os)
 .debug_abbrev  0x0000000000015443       0x14 /teamspace/studios/this_studio/AI-Automated-Radiology-Report/glibc-2.34/build/libc_pic.a(memmove-ssse3.os)
 .debug_abbrev  0x0000000000015457       0x14 /teamspace/studios/this_studio/AI-Automated-Radiology-Report/glibc-2.34/build/libc_pic.a(memcpy-ssse3-back.os)
 .debug_abbrev  0x000000000001546b       0x14 /teamspace/studios/this_studio/AI-Automated-Radiology-Report/glibc-2.34/build/libc_pic.a(memmove-ssse3-back.os)
 .debug_abbrev  0x000000000001547f       0x14 /teamspace/studios/this_studio/AI-Automated-Radiology-Report/glibc-2.34/build/libc_pic.a(memmove-avx512-no-vzeroupper.os)
 .debug_abbrev  0x0000000000015493       0x14 /teamspace/studios/this_studio/AI-Automated-Radiology-Report/glibc-2.34/build/libc_pic.a(strchr-sse2.os)
 .debug_abbrev  0x00000000000154a7       0x14 /teamspace/studios/this_studio/AI-Automated-Radiology-Report/glibc-2.34/build/libc_pic.a(strchr-avx2.os)
 .debug_abbrev  0x00000000000154bb       0x14 /teamspace/studios/this_studio/AI-Automated-Radiology-Report/glibc-2.34/build/libc_pic.a(strlen-sse2.os)
 .debug_abbrev  0x00000000000154cf       0x14 /teamspace/studios/this_studio/AI-Automated-Radiology-Report/glibc-2.34/build/libc_pic.a(strnlen-sse2.os)
 .debug_abbrev  0x00000000000154e3       0x14 /teamspace/studios/this_studio/AI-Automated-Radiology-Report/glibc-2.34/build/libc_pic.a(strlen-avx2.os)
 .debug_abbrev  0x00000000000154f7       0x14 /teamspace/studios/this_studio/AI-Automated-Radiology-Report/glibc-2.34/build/libc_pic.a(strnlen-avx2.os)
 .debug_abbrev  0x000000000001550b       0x14 /teamspace/studios/this_studio/AI-Automated-Radiology-Report/glibc-2.34/build/libc_pic.a(stpcpy-sse2.os)
 .debug_abbrev  0x000000000001551f       0x14 /teamspace/studios/this_studio/AI-Automated-Radiology-Report/glibc-2.34/build/libc_pic.a(stpcpy-ssse3.os)
 .debug_abbrev  0x0000000000015533       0x14 /teamspace/studios/this_studio/AI-Automated-Radiology-Report/glibc-2.34/build/libc_pic.a(stpcpy-sse2-unaligned.os)
 .debug_abbrev  0x0000000000015547       0x14 /teamspace/studios/this_studio/AI-Automated-Radiology-Report/glibc-2.34/build/libc_pic.a(stpcpy-avx2.os)
 .debug_abbrev  0x000000000001555b       0x14 /teamspace/studios/this_studio/AI-Automated-Radiology-Report/glibc-2.34/build/libc_pic.a(strchr-sse2-no-bsf.os)
 .debug_abbrev  0x000000000001556f       0x14 /teamspace/studios/this_studio/AI-Automated-Radiology-Report/glibc-2.34/build/libc_pic.a(memcmp-ssse3.os)
 .debug_abbrev  0x0000000000015583       0x14 /teamspace/studios/this_studio/AI-Automated-Radiology-Report/glibc-2.34/build/libc_pic.a(strcspn-sse2.os)
 .debug_abbrev  0x0000000000015597      0x272 /teamspace/studios/this_studio/AI-Automated-Radiology-Report/glibc-2.34/build/libc_pic.a(strcspn-c.os)
 .debug_abbrev  0x0000000000015809       0xca /teamspace/studios/this_studio/AI-Automated-Radiology-Report/glibc-2.34/build/libc_pic.a(varshift.os)
 .debug_abbrev  0x00000000000158d3       0x14 /teamspace/studios/this_studio/AI-Automated-Radiology-Report/glibc-2.34/build/libc_pic.a(memset-avx512-no-vzeroupper.os)
 .debug_abbrev  0x00000000000158e7       0x14 /teamspace/studios/this_studio/AI-Automated-Radiology-Report/glibc-2.34/build/libc_pic.a(memmove-sse2-unaligned-erms.os)
 .debug_abbrev  0x00000000000158fb       0x14 /teamspace/studios/this_studio/AI-Automated-Radiology-Report/glibc-2.34/build/libc_pic.a(memmove-avx-unaligned-erms.os)
 .debug_abbrev  0x000000000001590f       0x14 /teamspace/studios/this_studio/AI-Automated-Radiology-Report/glibc-2.34/build/libc_pic.a(memmove-avx512-unaligned-erms.os)
 .debug_abbrev  0x0000000000015923       0x14 /teamspace/studios/this_studio/AI-Automated-Radiology-Report/glibc-2.34/build/libc_pic.a(memset-sse2-unaligned-erms.os)
 .debug_abbrev  0x0000000000015937       0x14 /teamspace/studios/this_studio/AI-Automated-Radiology-Report/glibc-2.34/build/libc_pic.a(memset-avx2-unaligned-erms.os)
 .debug_abbrev  0x000000000001594b       0x14 /teamspace/studios/this_studio/AI-Automated-Radiology-Report/glibc-2.34/build/libc_pic.a(memset-avx512-unaligned-erms.os)
 .debug_abbrev  0x000000000001595f       0x14 /teamspace/studios/this_studio/AI-Automated-Radiology-Report/glibc-2.34/build/libc_pic.a(memchr-avx2-rtm.os)
 .debug_abbrev  0x0000000000015973       0x14 /teamspace/studios/this_studio/AI-Automated-Radiology-Report/glibc-2.34/build/libc_pic.a(memcmp-avx2-movbe-rtm.os)
 .debug_abbrev  0x0000000000015987       0x14 /teamspace/studios/this_studio/AI-Automated-Radiology-Report/glibc-2.34/build/libc_pic.a(memmove-avx-unaligned-erms-rtm.os)
 .debug_abbrev  0x000000000001599b       0x14 /teamspace/studios/this_studio/AI-Automated-Radiology-Report/glibc-2.34/build/libc_pic.a(memset-avx2-unaligned-erms-rtm.os)
 .debug_abbrev  0x00000000000159af       0x14 /teamspace/studios/this_studio/AI-Automated-Radiology-Report/glibc-2.34/build/libc_pic.a(rawmemchr-avx2-rtm.os)
 .debug_abbrev  0x00000000000159c3       0x14 /teamspace/studios/this_studio/AI-Automated-Radiology-Report/glibc-2.34/build/libc_pic.a(strchr-avx2-rtm.os)
 .debug_abbrev  0x00000000000159d7       0x14 /teamspace/studios/this_studio/AI-Automated-Radiology-Report/glibc-2.34/build/libc_pic.a(strcmp-avx2-rtm.os)
 .debug_abbrev  0x00000000000159eb       0x14 /teamspace/studios/this_studio/AI-Automated-Radiology-Report/glibc-2.34/build/libc_pic.a(stpcpy-avx2-rtm.os)
 .debug_abbrev  0x00000000000159ff       0x14 /teamspace/studios/this_studio/AI-Automated-Radiology-Report/glibc-2.34/build/libc_pic.a(strlen-avx2-rtm.os)
 .debug_abbrev  0x0000000000015a13       0x14 /teamspace/studios/this_studio/AI-Automated-Radiology-Report/glibc-2.34/build/libc_pic.a(strncmp-avx2-rtm.os)
 .debug_abbrev  0x0000000000015a27       0x14 /teamspace/studios/this_studio/AI-Automated-Radiology-Report/glibc-2.34/build/libc_pic.a(strnlen-avx2-rtm.os)
 .debug_abbrev  0x0000000000015a3b       0x14 /teamspace/studios/this_studio/AI-Automated-Radiology-Report/glibc-2.34/build/libc_pic.a(memchr-evex.os)
 .debug_abbrev  0x0000000000015a4f       0x14 /teamspace/studios/this_studio/AI-Automated-Radiology-Report/glibc-2.34/build/libc_pic.a(memcmp-evex-movbe.os)
 .debug_abbrev  0x0000000000015a63       0x14 /teamspace/studios/this_studio/AI-Automated-Radiology-Report/glibc-2.34/build/libc_pic.a(memmove-evex-unaligned-erms.os)
 .debug_abbrev  0x0000000000015a77       0x14 /teamspace/studios/this_studio/AI-Automated-Radiology-Report/glibc-2.34/build/libc_pic.a(memset-evex-unaligned-erms.os)
 .debug_abbrev  0x0000000000015a8b       0x14 /teamspace/studios/this_studio/AI-Automated-Radiology-Report/glibc-2.34/build/libc_pic.a(rawmemchr-evex.os)
 .debug_abbrev  0x0000000000015a9f       0x14 /teamspace/studios/this_studio/AI-Automated-Radiology-Report/glibc-2.34/build/libc_pic.a(stpcpy-evex.os)
 .debug_abbrev  0x0000000000015ab3       0x14 /teamspace/studios/this_studio/AI-Automated-Radiology-Report/glibc-2.34/build/libc_pic.a(strchr-evex.os)
 .debug_abbrev  0x0000000000015ac7       0x14 /teamspace/studios/this_studio/AI-Automated-Radiology-Report/glibc-2.34/build/libc_pic.a(strcmp-evex.os)
 .debug_abbrev  0x0000000000015adb       0x14 /teamspace/studios/this_studio/AI-Automated-Radiology-Report/glibc-2.34/build/libc_pic.a(strlen-evex.os)
 .debug_abbrev  0x0000000000015aef       0x14 /teamspace/studios/this_studio/AI-Automated-Radiology-Report/glibc-2.34/build/libc_pic.a(strncmp-evex.os)
 .debug_abbrev  0x0000000000015b03       0x14 /teamspace/studios/this_studio/AI-Automated-Radiology-Report/glibc-2.34/build/libc_pic.a(strnlen-evex.os)
 .debug_abbrev  0x0000000000015b17       0x14 /teamspace/studios/this_studio/AI-Automated-Radiology-Report/glibc-2.34/build/libc_pic.a(memchr-evex-rtm.os)
 .debug_abbrev  0x0000000000015b2b       0x14 /teamspace/studios/this_studio/AI-Automated-Radiology-Report/glibc-2.34/build/libc_pic.a(rawmemchr-evex-rtm.os)
 .debug_abbrev  0x0000000000015b3f      0x44d /teamspace/studios/this_studio/AI-Automated-Radiology-Report/glibc-2.34/build/libc_pic.a(cacheinfo.os)
 .debug_abbrev  0x0000000000015f8c      0x22b /teamspace/studios/this_studio/AI-Automated-Radiology-Report/glibc-2.34/build/libc_pic.a(closedir.os)
 .debug_abbrev  0x00000000000161b7      0x21f /teamspace/studios/this_studio/AI-Automated-Radiology-Report/glibc-2.34/build/libc_pic.a(rewinddir.os)
 .debug_abbrev  0x00000000000163d6      0x24a /teamspace/studios/this_studio/AI-Automated-Radiology-Report/glibc-2.34/build/libc_pic.a(readdir64.os)
 .debug_abbrev  0x0000000000016620      0x226 /teamspace/studios/this_studio/AI-Automated-Radiology-Report/glibc-2.34/build/libc_pic.a(fdopendir.os)
 .debug_abbrev  0x0000000000016846       0x14 /teamspace/studios/this_studio/AI-Automated-Radiology-Report/glibc-2.34/build/libc_pic.a(uname.os)
 .debug_abbrev  0x000000000001685a      0x1b5 /teamspace/studios/this_studio/AI-Automated-Radiology-Report/glibc-2.34/build/libc_pic.a(_exit.os)
 .debug_abbrev  0x0000000000016a0f       0x14 /teamspace/studios/this_studio/AI-Automated-Radiology-Report/glibc-2.34/build/libc_pic.a(getpid.os)
 .debug_abbrev  0x0000000000016a23       0x82 /teamspace/studios/this_studio/AI-Automated-Radiology-Report/glibc-2.34/build/libc_pic.a(environ.os)
 .debug_abbrev  0x0000000000016aa5      0x105 /teamspace/studios/this_studio/AI-Automated-Radiology-Report/glibc-2.34/build/libc_pic.a(stat64.os)
 .debug_abbrev  0x0000000000016baa       0xea /teamspace/studios/this_studio/AI-Automated-Radiology-Report/glibc-2.34/build/libc_pic.a(fstat64.os)
 .debug_abbrev  0x0000000000016c94      0x105 /teamspace/studios/this_studio/AI-Automated-Radiology-Report/glibc-2.34/build/libc_pic.a(lstat64.os)
 .debug_abbrev  0x0000000000016d99      0x261 /teamspace/studios/this_studio/AI-Automated-Radiology-Report/glibc-2.34/build/libc_pic.a(fstatat64.os)
 .debug_abbrev  0x0000000000016ffa      0x3e3 /teamspace/studios/this_studio/AI-Automated-Radiology-Report/glibc-2.34/build/libc_pic.a(openat64.os)
 .debug_abbrev  0x00000000000173dd      0x1d4 /teamspace/studios/this_studio/AI-Automated-Radiology-Report/glibc-2.34/build/libc_pic.a(lseek64.os)
 .debug_abbrev  0x00000000000175b1      0x1b1 /teamspace/studios/this_studio/AI-Automated-Radiology-Report/glibc-2.34/build/libc_pic.a(access.os)
 .debug_abbrev  0x0000000000017762      0x1b1 /teamspace/studios/this_studio/AI-Automated-Radiology-Report/glibc-2.34/build/libc_pic.a(close_nocancel.os)
 .debug_abbrev  0x0000000000017913      0x2c8 /teamspace/studios/this_studio/AI-Automated-Radiology-Report/glibc-2.34/build/libc_pic.a(fcntl_nocancel.os)
 .debug_abbrev  0x0000000000017bdb      0x1f2 /teamspace/studios/this_studio/AI-Automated-Radiology-Report/glibc-2.34/build/libc_pic.a(open64_nocancel.os)
 .debug_abbrev  0x0000000000017dcd      0x1cc /teamspace/studios/this_studio/AI-Automated-Radiology-Report/glibc-2.34/build/libc_pic.a(read_nocancel.os)
 .debug_abbrev  0x0000000000017f99      0x1c3 /teamspace/studios/this_studio/AI-Automated-Radiology-Report/glibc-2.34/build/libc_pic.a(pread64_nocancel.os)
 .debug_abbrev  0x000000000001815c      0x1ca /teamspace/studios/this_studio/AI-Automated-Radiology-Report/glibc-2.34/build/libc_pic.a(write_nocancel.os)
 .debug_abbrev  0x0000000000018326      0x459 /teamspace/studios/this_studio/AI-Automated-Radiology-Report/glibc-2.34/build/libc_pic.a(mmap64.os)
 .debug_abbrev  0x000000000001877f       0x14 /teamspace/studios/this_studio/AI-Automated-Radiology-Report/glibc-2.34/build/libc_pic.a(munmap.os)
 .debug_abbrev  0x0000000000018793       0x14 /teamspace/studios/this_studio/AI-Automated-Radiology-Report/glibc-2.34/build/libc_pic.a(mprotect.os)
 .debug_abbrev  0x00000000000187a7      0x305 /teamspace/studios/this_studio/AI-Automated-Radiology-Report/glibc-2.34/build/libc_pic.a(profil.os)
 .debug_abbrev  0x0000000000018aac      0x384 /teamspace/studios/this_studio/AI-Automated-Radiology-Report/glibc-2.34/build/libc_pic.a(prof-freq.os)
 .debug_abbrev  0x0000000000018e30      0x283 /teamspace/studios/this_studio/AI-Automated-Radiology-Report/glibc-2.34/build/libc_pic.a(dl-addr-obj.os)
 .debug_abbrev  0x00000000000190b3      0x268 /teamspace/studios/this_studio/AI-Automated-Radiology-Report/glibc-2.34/build/libc_pic.a(sigaction.os)
 .debug_abbrev  0x000000000001931b      0x230 /teamspace/studios/this_studio/AI-Automated-Radiology-Report/glibc-2.34/build/libc_pic.a(libc_sigaction.os)
 .debug_abbrev  0x000000000001954b      0x1e3 /teamspace/studios/this_studio/AI-Automated-Radiology-Report/glibc-2.34/build/libc_pic.a(setitimer.os)
 .debug_abbrev  0x000000000001972e      0x1cc /teamspace/studios/this_studio/AI-Automated-Radiology-Report/glibc-2.34/build/libc_pic.a(getdents64.os)

.debug_line     0x0000000000000000    0x3cac6
 *(.debug_line)
 .debug_line    0x0000000000000000    0x28608 /teamspace/studios/this_studio/AI-Automated-Radiology-Report/glibc-2.34/build/elf/dl-allobjs.os
 .debug_line    0x0000000000028608      0x39b /teamspace/studios/this_studio/AI-Automated-Radiology-Report/glibc-2.34/build/libc_pic.a(check_fds.os)
 .debug_line    0x00000000000289a3      0x225 /teamspace/studios/this_studio/AI-Automated-Radiology-Report/glibc-2.34/build/libc_pic.a(errno.os)
 .debug_line    0x0000000000028bc8       0x65 /teamspace/studios/this_studio/AI-Automated-Radiology-Report/glibc-2.34/build/libc_pic.a(setjmp.os)
 .debug_line    0x0000000000028c2d       0x72 /teamspace/studios/this_studio/AI-Automated-Radiology-Report/glibc-2.34/build/libc_pic.a(__longjmp.os)
 .debug_line    0x0000000000028c9f      0x468 /teamspace/studios/this_studio/AI-Automated-Radiology-Report/glibc-2.34/build/libc_pic.a(lowlevellock.os)
 .debug_line    0x0000000000029107      0x1fd /teamspace/studios/this_studio/AI-Automated-Radiology-Report/glibc-2.34/build/libc_pic.a(scratch_buffer_set_array_size.os)
 .debug_line    0x0000000000029304      0x544 /teamspace/studios/this_studio/AI-Automated-Radiology-Report/glibc-2.34/build/libc_pic.a(strchr.os)
 .debug_line    0x0000000000029848      0x54c /teamspace/studios/this_studio/AI-Automated-Radiology-Report/glibc-2.34/build/libc_pic.a(strcmp.os)
 .debug_line    0x0000000000029d94      0x521 /teamspace/studios/this_studio/AI-Automated-Radiology-Report/glibc-2.34/build/libc_pic.a(strcspn.os)
 .debug_line    0x000000000002a2b5      0x122 /teamspace/studios/this_studio/AI-Automated-Radiology-Report/glibc-2.34/build/libc_pic.a(strdup.os)
 .debug_line    0x000000000002a3d7      0x553 /teamspace/studios/this_studio/AI-Automated-Radiology-Report/glibc-2.34/build/libc_pic.a(strlen.os)
 .debug_line    0x000000000002a92a      0x554 /teamspace/studios/this_studio/AI-Automated-Radiology-Report/glibc-2.34/build/libc_pic.a(strnlen.os)
 .debug_line    0x000000000002ae7e      0x54b /teamspace/studios/this_studio/AI-Automated-Radiology-Report/glibc-2.34/build/libc_pic.a(strncmp.os)
 .debug_line    0x000000000002b3c9      0x556 /teamspace/studios/this_studio/AI-Automated-Radiology-Report/glibc-2.34/build/libc_pic.a(memchr.os)
 .debug_line    0x000000000002b91f      0x56a /teamspace/studios/this_studio/AI-Automated-Radiology-Report/glibc-2.34/build/libc_pic.a(memcmp.os)
 .debug_line    0x000000000002be89      0x5a8 /teamspace/studios/this_studio/AI-Automated-Radiology-Report/glibc-2.34/build/libc_pic.a(memmove.os)
 .debug_line    0x000000000002c431      0x59b /teamspace/studios/this_studio/AI-Automated-Radiology-Report/glibc-2.34/build/libc_pic.a(memset.os)
 .debug_line    0x000000000002c9cc      0x5a8 /teamspace/studios/this_studio/AI-Automated-Radiology-Report/glibc-2.34/build/libc_pic.a(mempcpy.os)
 .debug_line    0x000000000002cf74      0x561 /teamspace/studios/this_studio/AI-Automated-Radiology-Report/glibc-2.34/build/libc_pic.a(stpcpy.os)
 .debug_line    0x000000000002d4d5      0x5a7 /teamspace/studios/this_studio/AI-Automated-Radiology-Report/glibc-2.34/build/libc_pic.a(memcpy.os)
 .debug_line    0x000000000002da7c      0x557 /teamspace/studios/this_studio/AI-Automated-Radiology-Report/glibc-2.34/build/libc_pic.a(rawmemchr.os)
 .debug_line    0x000000000002dfd3      0x492 /teamspace/studios/this_studio/AI-Automated-Radiology-Report/glibc-2.34/build/libc_pic.a(strcmp-sse2.os)
 .debug_line    0x000000000002e465      0x10d /teamspace/studios/this_studio/AI-Automated-Radiology-Report/glibc-2.34/build/libc_pic.a(strcmp-sse2-unaligned.os)
 .debug_line    0x000000000002e572      0x462 /teamspace/studios/this_studio/AI-Automated-Radiology-Report/glibc-2.34/build/libc_pic.a(strcmp-ssse3.os)
 .debug_line    0x000000000002e9d4      0x18b /teamspace/studios/this_studio/AI-Automated-Radiology-Report/glibc-2.34/build/libc_pic.a(strcmp-avx2.os)
 .debug_line    0x000000000002eb5f      0x528 /teamspace/studios/this_studio/AI-Automated-Radiology-Report/glibc-2.34/build/libc_pic.a(strncmp-sse2.os)
 .debug_line    0x000000000002f087      0x4ec /teamspace/studios/this_studio/AI-Automated-Radiology-Report/glibc-2.34/build/libc_pic.a(strncmp-ssse3.os)
 .debug_line    0x000000000002f573      0x39b /teamspace/studios/this_studio/AI-Automated-Radiology-Report/glibc-2.34/build/libc_pic.a(strncmp-sse4_2.os)
 .debug_line    0x000000000002f90e      0x1b9 /teamspace/studios/this_studio/AI-Automated-Radiology-Report/glibc-2.34/build/libc_pic.a(strncmp-avx2.os)
 .debug_line    0x000000000002fac7      0x127 /teamspace/studios/this_studio/AI-Automated-Radiology-Report/glibc-2.34/build/libc_pic.a(memchr-sse2.os)
 .debug_line    0x000000000002fbee       0xd5 /teamspace/studios/this_studio/AI-Automated-Radiology-Report/glibc-2.34/build/libc_pic.a(rawmemchr-sse2.os)
 .debug_line    0x000000000002fcc3      0x114 /teamspace/studios/this_studio/AI-Automated-Radiology-Report/glibc-2.34/build/libc_pic.a(memchr-avx2.os)
 .debug_line    0x000000000002fdd7       0xc5 /teamspace/studios/this_studio/AI-Automated-Radiology-Report/glibc-2.34/build/libc_pic.a(rawmemchr-avx2.os)
 .debug_line    0x000000000002fe9c      0x14d /teamspace/studios/this_studio/AI-Automated-Radiology-Report/glibc-2.34/build/libc_pic.a(memcmp-sse2.os)
 .debug_line    0x000000000002ffe9      0x158 /teamspace/studios/this_studio/AI-Automated-Radiology-Report/glibc-2.34/build/libc_pic.a(memcmp-avx2-movbe.os)
 .debug_line    0x0000000000030141      0x501 /teamspace/studios/this_studio/AI-Automated-Radiology-Report/glibc-2.34/build/libc_pic.a(memcmp-sse4.os)
 .debug_line    0x0000000000030642      0x94c /teamspace/studios/this_studio/AI-Automated-Radiology-Report/glibc-2.34/build/libc_pic.a(memcpy-ssse3.os)
 .debug_line    0x0000000000030f8e      0x9a0 /teamspace/studios/this_studio/AI-Automated-Radiology-Report/glibc-2.34/build/libc_pic.a(memmove-ssse3.os)
 .debug_line    0x000000000003192e      0x882 /teamspace/studios/this_studio/AI-Automated-Radiology-Report/glibc-2.34/build/libc_pic.a(memcpy-ssse3-back.os)
 .debug_line    0x00000000000321b0      0x886 /teamspace/studios/this_studio/AI-Automated-Radiology-Report/glibc-2.34/build/libc_pic.a(memmove-ssse3-back.os)
 .debug_line    0x0000000000032a36      0x1b9 /teamspace/studios/this_studio/AI-Automated-Radiology-Report/glibc-2.34/build/libc_pic.a(memmove-avx512-no-vzeroupper.os)
 .debug_line    0x0000000000032bef       0xe0 /teamspace/studios/this_studio/AI-Automated-Radiology-Report/glibc-2.34/build/libc_pic.a(strchr-sse2.os)
 .debug_line    0x0000000000032ccf       0xee /teamspace/studios/this_studio/AI-Automated-Radiology-Report/glibc-2.34/build/libc_pic.a(strchr-avx2.os)
 .debug_line    0x0000000000032dbd       0xa7 /teamspace/studios/this_studio/AI-Automated-Radiology-Report/glibc-2.34/build/libc_pic.a(strlen-sse2.os)
 .debug_line    0x0000000000032e64       0xb8 /teamspace/studios/this_studio/AI-Automated-Radiology-Report/glibc-2.34/build/libc_pic.a(strnlen-sse2.os)
 .debug_line    0x0000000000032f1c       0xd6 /teamspace/studios/this_studio/AI-Automated-Radiology-Report/glibc-2.34/build/libc_pic.a(strlen-avx2.os)
 .debug_line    0x0000000000032ff2      0x131 /teamspace/studios/this_studio/AI-Automated-Radiology-Report/glibc-2.34/build/libc_pic.a(strnlen-avx2.os)
 .debug_line    0x0000000000033123       0x97 /teamspace/studios/this_studio/AI-Automated-Radiology-Report/glibc-2.34/build/libc_pic.a(stpcpy-sse2.os)
 .debug_line    0x00000000000331ba      0x628 /teamspace/studios/this_studio/AI-Automated-Radiology-Report/glibc-2.34/build/libc_pic.a(stpcpy-ssse3.os)
 .debug_line    0x00000000000337e2      0x1e3 /teamspace/studios/this_studio/AI-Automated-Radiology-Report/glibc-2.34/build/libc_pic.a(stpcpy-sse2-unaligned.os)
 .debug_line    0x00000000000339c5      0x143 /teamspace/studios/this_studio/AI-Automated-Radiology-Report/glibc-2.34/build/libc_pic.a(stpcpy-avx2.os)
 .debug_line    0x0000000000033b08      0x112 /teamspace/studios/this_studio/AI-Automated-Radiology-Report/glibc-2.34/build/libc_pic.a(strchr-sse2-no-bsf.os)
 .debug_line    0x0000000000033c1a      0x5d0 /teamspace/studios/this_studio/AI-Automated-Radiology-Report/glibc-2.34/build/libc_pic.a(memcmp-ssse3.os)
 .debug_line    0x00000000000341ea       0x82 /teamspace/studios/this_studio/AI-Automated-Radiology-Report/glibc-2.34/build/libc_pic.a(strcspn-sse2.os)
 .debug_line    0x000000000003426c      0x496 /teamspace/studios/this_studio/AI-Automated-Radiology-Report/glibc-2.34/build/libc_pic.a(strcspn-c.os)
 .debug_line    0x0000000000034702       0xb4 /teamspace/studios/this_studio/AI-Automated-Radiology-Report/glibc-2.34/build/libc_pic.a(varshift.os)
 .debug_line    0x00000000000347b6       0xed /teamspace/studios/this_studio/AI-Automated-Radiology-Report/glibc-2.34/build/libc_pic.a(memset-avx512-no-vzeroupper.os)
 .debug_line    0x00000000000348a3      0x1cf /teamspace/studios/this_studio/AI-Automated-Radiology-Report/glibc-2.34/build/libc_pic.a(memmove-sse2-unaligned-erms.os)
 .debug_line    0x0000000000034a72      0x1be /teamspace/studios/this_studio/AI-Automated-Radiology-Report/glibc-2.34/build/libc_pic.a(memmove-avx-unaligned-erms.os)
 .debug_line    0x0000000000034c30      0x1c6 /teamspace/studios/this_studio/AI-Automated-Radiology-Report/glibc-2.34/build/libc_pic.a(memmove-avx512-unaligned-erms.os)
 .debug_line    0x0000000000034df6       0xd2 /teamspace/studios/this_studio/AI-Automated-Radiology-Report/glibc-2.34/build/libc_pic.a(memset-sse2-unaligned-erms.os)
 .debug_line    0x0000000000034ec8       0xcb /teamspace/studios/this_studio/AI-Automated-Radiology-Report/glibc-2.34/build/libc_pic.a(memset-avx2-unaligned-erms.os)
 .debug_line    0x0000000000034f93       0xd6 /teamspace/studios/this_studio/AI-Automated-Radiology-Report/glibc-2.34/build/libc_pic.a(memset-avx512-unaligned-erms.os)
 .debug_line    0x0000000000035069      0x113 /teamspace/studios/this_studio/AI-Automated-Radiology-Report/glibc-2.34/build/libc_pic.a(memchr-avx2-rtm.os)
 .debug_line    0x000000000003517c      0x158 /teamspace/studios/this_studio/AI-Automated-Radiology-Report/glibc-2.34/build/libc_pic.a(memcmp-avx2-movbe-rtm.os)
 .debug_line    0x00000000000352d4      0x1be /teamspace/studios/this_studio/AI-Automated-Radiology-Report/glibc-2.34/build/libc_pic.a(memmove-avx-unaligned-erms-rtm.os)
 .debug_line    0x0000000000035492       0xcc /teamspace/studios/this_studio/AI-Automated-Radiology-Report/glibc-2.34/build/libc_pic.a(memset-avx2-unaligned-erms-rtm.os)
 .debug_line    0x000000000003555e       0xc5 /teamspace/studios/this_studio/AI-Automated-Radiology-Report/glibc-2.34/build/libc_pic.a(rawmemchr-avx2-rtm.os)
 .debug_line    0x0000000000035623       0xee /teamspace/studios/this_studio/AI-Automated-Radiology-Report/glibc-2.34/build/libc_pic.a(strchr-avx2-rtm.os)
 .debug_line    0x0000000000035711      0x18e /teamspace/studios/this_studio/AI-Automated-Radiology-Report/glibc-2.34/build/libc_pic.a(strcmp-avx2-rtm.os)
 .debug_line    0x000000000003589f      0x144 /teamspace/studios/this_studio/AI-Automated-Radiology-Report/glibc-2.34/build/libc_pic.a(stpcpy-avx2-rtm.os)
 .debug_line    0x00000000000359e3       0xd5 /teamspace/studios/this_studio/AI-Automated-Radiology-Report/glibc-2.34/build/libc_pic.a(strlen-avx2-rtm.os)
 .debug_line    0x0000000000035ab8      0x1bb /teamspace/studios/this_studio/AI-Automated-Radiology-Report/glibc-2.34/build/libc_pic.a(strncmp-avx2-rtm.os)
 .debug_line    0x0000000000035c73      0x133 /teamspace/studios/this_studio/AI-Automated-Radiology-Report/glibc-2.34/build/libc_pic.a(strnlen-avx2-rtm.os)
 .debug_line    0x0000000000035da6      0x11c /teamspace/studios/this_studio/AI-Automated-Radiology-Report/glibc-2.34/build/libc_pic.a(memchr-evex.os)
 .debug_line    0x0000000000035ec2      0x15a /teamspace/studios/this_studio/AI-Automated-Radiology-Report/glibc-2.34/build/libc_pic.a(memcmp-evex-movbe.os)
 .debug_line    0x000000000003601c      0x1c5 /teamspace/studios/this_studio/AI-Automated-Radiology-Report/glibc-2.34/build/libc_pic.a(memmove-evex-unaligned-erms.os)
 .debug_line    0x00000000000361e1       0xd6 /teamspace/studios/this_studio/AI-Automated-Radiology-Report/glibc-2.34/build/libc_pic.a(memset-evex-unaligned-erms.os)
 .debug_line    0x00000000000362b7       0xc6 /teamspace/studios/this_studio/AI-Automated-Radiology-Report/glibc-2.34/build/libc_pic.a(rawmemchr-evex.os)
 .debug_line    0x000000000003637d      0x142 /teamspace/studios/this_studio/AI-Automated-Radiology-Report/glibc-2.34/build/libc_pic.a(stpcpy-evex.os)
 .debug_line    0x00000000000364bf       0xe8 /teamspace/studios/this_studio/AI-Automated-Radiology-Report/glibc-2.34/build/libc_pic.a(strchr-evex.os)
 .debug_line    0x00000000000365a7      0x1b4 /teamspace/studios/this_studio/AI-Automated-Radiology-Report/glibc-2.34/build/libc_pic.a(strcmp-evex.os)
 .debug_line    0x000000000003675b       0xc1 /teamspace/studios/this_studio/AI-Automated-Radiology-Report/glibc-2.34/build/libc_pic.a(strlen-evex.os)
 .debug_line    0x000000000003681c      0x1e2 /teamspace/studios/this_studio/AI-Automated-Radiology-Report/glibc-2.34/build/libc_pic.a(strncmp-evex.os)
 .debug_line    0x00000000000369fe      0x115 /teamspace/studios/this_studio/AI-Automated-Radiology-Report/glibc-2.34/build/libc_pic.a(strnlen-evex.os)
 .debug_line    0x0000000000036b13      0x11b /teamspace/studios/this_studio/AI-Automated-Radiology-Report/glibc-2.34/build/libc_pic.a(memchr-evex-rtm.os)
 .debug_line    0x0000000000036c2e       0xca /teamspace/studios/this_studio/AI-Automated-Radiology-Report/glibc-2.34/build/libc_pic.a(rawmemchr-evex-rtm.os)
 .debug_line    0x0000000000036cf8      0x62a /teamspace/studios/this_studio/AI-Automated-Radiology-Report/glibc-2.34/build/libc_pic.a(cacheinfo.os)
 .debug_line    0x0000000000037322      0x344 /teamspace/studios/this_studio/AI-Automated-Radiology-Report/glibc-2.34/build/libc_pic.a(closedir.os)
 .debug_line    0x0000000000037666      0x42e /teamspace/studios/this_studio/AI-Automated-Radiology-Report/glibc-2.34/build/libc_pic.a(rewinddir.os)
 .debug_line    0x0000000000037a94      0x439 /teamspace/studios/this_studio/AI-Automated-Radiology-Report/glibc-2.34/build/libc_pic.a(readdir64.os)
 .debug_line    0x0000000000037ecd      0x3df /teamspace/studios/this_studio/AI-Automated-Radiology-Report/glibc-2.34/build/libc_pic.a(fdopendir.os)
 .debug_line    0x00000000000382ac       0x59 /teamspace/studios/this_studio/AI-Automated-Radiology-Report/glibc-2.34/build/libc_pic.a(uname.os)
 .debug_line    0x0000000000038305      0x2f2 /teamspace/studios/this_studio/AI-Automated-Radiology-Report/glibc-2.34/build/libc_pic.a(_exit.os)
 .debug_line    0x00000000000385f7       0x58 /teamspace/studios/this_studio/AI-Automated-Radiology-Report/glibc-2.34/build/libc_pic.a(getpid.os)
 .debug_line    0x000000000003864f       0x75 /teamspace/studios/this_studio/AI-Automated-Radiology-Report/glibc-2.34/build/libc_pic.a(environ.os)
 .debug_line    0x00000000000386c4      0x10c /teamspace/studios/this_studio/AI-Automated-Radiology-Report/glibc-2.34/build/libc_pic.a(stat64.os)
 .debug_line    0x00000000000387d0      0x13e /teamspace/studios/this_studio/AI-Automated-Radiology-Report/glibc-2.34/build/libc_pic.a(fstat64.os)
 .debug_line    0x000000000003890e      0x10d /teamspace/studios/this_studio/AI-Automated-Radiology-Report/glibc-2.34/build/libc_pic.a(lstat64.os)
 .debug_line    0x0000000000038a1b      0x2f2 /teamspace/studios/this_studio/AI-Automated-Radiology-Report/glibc-2.34/build/libc_pic.a(fstatat64.os)
 .debug_line    0x0000000000038d0d      0x5be /teamspace/studios/this_studio/AI-Automated-Radiology-Report/glibc-2.34/build/libc_pic.a(openat64.os)
 .debug_line    0x00000000000392cb      0x2a9 /teamspace/studios/this_studio/AI-Automated-Radiology-Report/glibc-2.34/build/libc_pic.a(lseek64.os)
 .debug_line    0x0000000000039574      0x2ac /teamspace/studios/this_studio/AI-Automated-Radiology-Report/glibc-2.34/build/libc_pic.a(access.os)
 .debug_line    0x0000000000039820      0x2b2 /teamspace/studios/this_studio/AI-Automated-Radiology-Report/glibc-2.34/build/libc_pic.a(close_nocancel.os)
 .debug_line    0x0000000000039ad2      0x35c /teamspace/studios/this_studio/AI-Automated-Radiology-Report/glibc-2.34/build/libc_pic.a(fcntl_nocancel.os)
 .debug_line    0x0000000000039e2e      0x32a /teamspace/studios/this_studio/AI-Automated-Radiology-Report/glibc-2.34/build/libc_pic.a(open64_nocancel.os)
 .debug_line    0x000000000003a158      0x2ee /teamspace/studios/this_studio/AI-Automated-Radiology-Report/glibc-2.34/build/libc_pic.a(read_nocancel.os)
 .debug_line    0x000000000003a446      0x2fa /teamspace/studios/this_studio/AI-Automated-Radiology-Report/glibc-2.34/build/libc_pic.a(pread64_nocancel.os)
 .debug_line    0x000000000003a740      0x2ef /teamspace/studios/this_studio/AI-Automated-Radiology-Report/glibc-2.34/build/libc_pic.a(write_nocancel.os)
 .debug_line    0x000000000003aa2f      0x635 /teamspace/studios/this_studio/AI-Automated-Radiology-Report/glibc-2.34/build/libc_pic.a(mmap64.os)
 .debug_line    0x000000000003b064       0x59 /teamspace/studios/this_studio/AI-Automated-Radiology-Report/glibc-2.34/build/libc_pic.a(munmap.os)
 .debug_line    0x000000000003b0bd       0x59 /teamspace/studios/this_studio/AI-Automated-Radiology-Report/glibc-2.34/build/libc_pic.a(mprotect.os)
 .debug_line    0x000000000003b116      0x4c2 /teamspace/studios/this_studio/AI-Automated-Radiology-Report/glibc-2.34/build/libc_pic.a(profil.os)
 .debug_line    0x000000000003b5d8      0x4d9 /teamspace/studios/this_studio/AI-Automated-Radiology-Report/glibc-2.34/build/libc_pic.a(prof-freq.os)
 .debug_line    0x000000000003bab1      0x375 /teamspace/studios/this_studio/AI-Automated-Radiology-Report/glibc-2.34/build/libc_pic.a(dl-addr-obj.os)
 .debug_line    0x000000000003be26      0x325 /teamspace/studios/this_studio/AI-Automated-Radiology-Report/glibc-2.34/build/libc_pic.a(sigaction.os)
 .debug_line    0x000000000003c14b      0x410 /teamspace/studios/this_studio/AI-Automated-Radiology-Report/glibc-2.34/build/libc_pic.a(libc_sigaction.os)
 .debug_line    0x000000000003c55b      0x2a9 /teamspace/studios/this_studio/AI-Automated-Radiology-Report/glibc-2.34/build/libc_pic.a(setitimer.os)
 .debug_line    0x000000000003c804      0x2c2 /teamspace/studios/this_studio/AI-Automated-Radiology-Report/glibc-2.34/build/libc_pic.a(getdents64.os)

.debug_frame
 *(.debug_frame)

.debug_str      0x0000000000000000    0xa80ca
 *(.debug_str)
 .debug_str     0x0000000000000000    0x6f08f /teamspace/studios/this_studio/AI-Automated-Radiology-Report/glibc-2.34/build/elf/dl-allobjs.os
 .debug_str     0x000000000006f08f      0x9f2 /teamspace/studios/this_studio/AI-Automated-Radiology-Report/glibc-2.34/build/libc_pic.a(check_fds.os)
 .debug_str     0x000000000006fa81      0x7a5 /teamspace/studios/this_studio/AI-Automated-Radiology-Report/glibc-2.34/build/libc_pic.a(errno.os)
 .debug_str     0x0000000000070226       0x76 /teamspace/studios/this_studio/AI-Automated-Radiology-Report/glibc-2.34/build/libc_pic.a(setjmp.os)
 .debug_str     0x000000000007029c       0x79 /teamspace/studios/this_studio/AI-Automated-Radiology-Report/glibc-2.34/build/libc_pic.a(__longjmp.os)
 .debug_str     0x0000000000070315      0xd24 /teamspace/studios/this_studio/AI-Automated-Radiology-Report/glibc-2.34/build/libc_pic.a(lowlevellock.os)
 .debug_str     0x0000000000071039      0x3b4 /teamspace/studios/this_studio/AI-Automated-Radiology-Report/glibc-2.34/build/libc_pic.a(scratch_buffer_set_array_size.os)
 .debug_str     0x00000000000713ed     0x238b /teamspace/studios/this_studio/AI-Automated-Radiology-Report/glibc-2.34/build/libc_pic.a(strchr.os)
 .debug_str     0x0000000000073778     0x238b /teamspace/studios/this_studio/AI-Automated-Radiology-Report/glibc-2.34/build/libc_pic.a(strcmp.os)
 .debug_str     0x0000000000075b03     0x1fae /teamspace/studios/this_studio/AI-Automated-Radiology-Report/glibc-2.34/build/libc_pic.a(strcspn.os)
 .debug_str     0x0000000000077ab1      0x336 /teamspace/studios/this_studio/AI-Automated-Radiology-Report/glibc-2.34/build/libc_pic.a(strdup.os)
 .debug_str     0x0000000000077de7     0x238b /teamspace/studios/this_studio/AI-Automated-Radiology-Report/glibc-2.34/build/libc_pic.a(strlen.os)
 .debug_str     0x000000000007a172     0x2390 /teamspace/studios/this_studio/AI-Automated-Radiology-Report/glibc-2.34/build/libc_pic.a(strnlen.os)
 .debug_str     0x000000000007c502     0x238e /teamspace/studios/this_studio/AI-Automated-Radiology-Report/glibc-2.34/build/libc_pic.a(strncmp.os)
 .debug_str     0x000000000007e890     0x238b /teamspace/studios/this_studio/AI-Automated-Radiology-Report/glibc-2.34/build/libc_pic.a(memchr.os)
 .debug_str     0x0000000000080c1b     0x238b /teamspace/studios/this_studio/AI-Automated-Radiology-Report/glibc-2.34/build/libc_pic.a(memcmp.os)
 .debug_str     0x0000000000082fa6     0x2395 /teamspace/studios/this_studio/AI-Automated-Radiology-Report/glibc-2.34/build/libc_pic.a(memmove.os)
 .debug_str     0x000000000008533b     0x238b /teamspace/studios/this_studio/AI-Automated-Radiology-Report/glibc-2.34/build/libc_pic.a(memset.os)
 .debug_str     0x00000000000876c6     0x2390 /teamspace/studios/this_studio/AI-Automated-Radiology-Report/glibc-2.34/build/libc_pic.a(mempcpy.os)
 .debug_str     0x0000000000089a56     0x238d /teamspace/studios/this_studio/AI-Automated-Radiology-Report/glibc-2.34/build/libc_pic.a(stpcpy.os)
 .debug_str     0x000000000008bde3     0x2391 /teamspace/studios/this_studio/AI-Automated-Radiology-Report/glibc-2.34/build/libc_pic.a(memcpy.os)
 .debug_str     0x000000000008e174     0x2396 /teamspace/studios/this_studio/AI-Automated-Radiology-Report/glibc-2.34/build/libc_pic.a(rawmemchr.os)
 .debug_str     0x000000000009050a       0x76 /teamspace/studios/this_studio/AI-Automated-Radiology-Report/glibc-2.34/build/libc_pic.a(strcmp-sse2.os)
 .debug_str     0x0000000000090580       0x8f /teamspace/studios/this_studio/AI-Automated-Radiology-Report/glibc-2.34/build/libc_pic.a(strcmp-sse2-unaligned.os)
 .debug_str     0x000000000009060f       0x83 /teamspace/studios/this_studio/AI-Automated-Radiology-Report/glibc-2.34/build/libc_pic.a(strcmp-ssse3.os)
 .debug_str     0x0000000000090692       0x85 /teamspace/studios/this_studio/AI-Automated-Radiology-Report/glibc-2.34/build/libc_pic.a(strcmp-avx2.os)
 .debug_str     0x0000000000090717       0x76 /teamspace/studios/this_studio/AI-Automated-Radiology-Report/glibc-2.34/build/libc_pic.a(strncmp-sse2.os)
 .debug_str     0x000000000009078d       0x76 /teamspace/studios/this_studio/AI-Automated-Radiology-Report/glibc-2.34/build/libc_pic.a(strncmp-ssse3.os)
 .debug_str     0x0000000000090803       0x86 /teamspace/studios/this_studio/AI-Automated-Radiology-Report/glibc-2.34/build/libc_pic.a(strncmp-sse4_2.os)
 .debug_str     0x0000000000090889       0x85 /teamspace/studios/this_studio/AI-Automated-Radiology-Report/glibc-2.34/build/libc_pic.a(strncmp-avx2.os)
 .debug_str     0x000000000009090e       0x83 /teamspace/studios/this_studio/AI-Automated-Radiology-Report/glibc-2.34/build/libc_pic.a(memchr-sse2.os)
 .debug_str     0x0000000000090991       0x86 /teamspace/studios/this_studio/AI-Automated-Radiology-Report/glibc-2.34/build/libc_pic.a(rawmemchr-sse2.os)
 .debug_str     0x0000000000090a17       0x85 /teamspace/studios/this_studio/AI-Automated-Radiology-Report/glibc-2.34/build/libc_pic.a(memchr-avx2.os)
 .debug_str     0x0000000000090a9c       0x85 /teamspace/studios/this_studio/AI-Automated-Radiology-Report/glibc-2.34/build/libc_pic.a(rawmemchr-avx2.os)
 .debug_str     0x0000000000090b21       0x76 /teamspace/studios/this_studio/AI-Automated-Radiology-Report/glibc-2.34/build/libc_pic.a(memcmp-sse2.os)
 .debug_str     0x0000000000090b97       0x8b /teamspace/studios/this_studio/AI-Automated-Radiology-Report/glibc-2.34/build/libc_pic.a(memcmp-avx2-movbe.os)
 .debug_str     0x0000000000090c22       0x85 /teamspace/studios/this_studio/AI-Automated-Radiology-Report/glibc-2.34/build/libc_pic.a(memcmp-sse4.os)
 .debug_str     0x0000000000090ca7       0x86 /teamspace/studios/this_studio/AI-Automated-Radiology-Report/glibc-2.34/build/libc_pic.a(memcpy-ssse3.os)
 .debug_str     0x0000000000090d2d       0x86 /teamspace/studios/this_studio/AI-Automated-Radiology-Report/glibc-2.34/build/libc_pic.a(memmove-ssse3.os)
 .debug_str     0x0000000000090db3       0x8b /teamspace/studios/this_studio/AI-Automated-Radiology-Report/glibc-2.34/build/libc_pic.a(memcpy-ssse3-back.os)
 .debug_str     0x0000000000090e3e       0x8b /teamspace/studios/this_studio/AI-Automated-Radiology-Report/glibc-2.34/build/libc_pic.a(memmove-ssse3-back.os)
 .debug_str     0x0000000000090ec9       0x96 /teamspace/studios/this_studio/AI-Automated-Radiology-Report/glibc-2.34/build/libc_pic.a(memmove-avx512-no-vzeroupper.os)
 .debug_str     0x0000000000090f5f       0x83 /teamspace/studios/this_studio/AI-Automated-Radiology-Report/glibc-2.34/build/libc_pic.a(strchr-sse2.os)
 .debug_str     0x0000000000090fe2       0x85 /teamspace/studios/this_studio/AI-Automated-Radiology-Report/glibc-2.34/build/libc_pic.a(strchr-avx2.os)
 .debug_str     0x0000000000091067       0x84 /teamspace/studios/this_studio/AI-Automated-Radiology-Report/glibc-2.34/build/libc_pic.a(strlen-sse2.os)
 .debug_str     0x00000000000910eb       0x91 /teamspace/studios/this_studio/AI-Automated-Radiology-Report/glibc-2.34/build/libc_pic.a(strnlen-sse2.os)
 .debug_str     0x000000000009117c       0x85 /teamspace/studios/this_studio/AI-Automated-Radiology-Report/glibc-2.34/build/libc_pic.a(strlen-avx2.os)
 .debug_str     0x0000000000091201       0x85 /teamspace/studios/this_studio/AI-Automated-Radiology-Report/glibc-2.34/build/libc_pic.a(strnlen-avx2.os)
 .debug_str     0x0000000000091286       0x76 /teamspace/studios/this_studio/AI-Automated-Radiology-Report/glibc-2.34/build/libc_pic.a(stpcpy-sse2.os)
 .debug_str     0x00000000000912fc       0x86 /teamspace/studios/this_studio/AI-Automated-Radiology-Report/glibc-2.34/build/libc_pic.a(stpcpy-ssse3.os)
 .debug_str     0x0000000000091382       0x8f /teamspace/studios/this_studio/AI-Automated-Radiology-Report/glibc-2.34/build/libc_pic.a(stpcpy-sse2-unaligned.os)
 .debug_str     0x0000000000091411       0x85 /teamspace/studios/this_studio/AI-Automated-Radiology-Report/glibc-2.34/build/libc_pic.a(stpcpy-avx2.os)
 .debug_str     0x0000000000091496       0x8c /teamspace/studios/this_studio/AI-Automated-Radiology-Report/glibc-2.34/build/libc_pic.a(strchr-sse2-no-bsf.os)
 .debug_str     0x0000000000091522       0x86 /teamspace/studios/this_studio/AI-Automated-Radiology-Report/glibc-2.34/build/libc_pic.a(memcmp-ssse3.os)
 .debug_str     0x00000000000915a8       0x77 /teamspace/studios/this_studio/AI-Automated-Radiology-Report/glibc-2.34/build/libc_pic.a(strcspn-sse2.os)
 .debug_str     0x000000000009161f      0x436 /teamspace/studios/this_studio/AI-Automated-Radiology-Report/glibc-2.34/build/libc_pic.a(strcspn-c.os)
 .debug_str     0x0000000000091a55      0x2ac /teamspace/studios/this_studio/AI-Automated-Radiology-Report/glibc-2.34/build/libc_pic.a(varshift.os)
 .debug_str     0x0000000000091d01       0x95 /teamspace/studios/this_studio/AI-Automated-Radiology-Report/glibc-2.34/build/libc_pic.a(memset-avx512-no-vzeroupper.os)
 .debug_str     0x0000000000091d96       0x94 /teamspace/studios/this_studio/AI-Automated-Radiology-Report/glibc-2.34/build/libc_pic.a(memmove-sse2-unaligned-erms.os)
 .debug_str     0x0000000000091e2a       0x94 /teamspace/studios/this_studio/AI-Automated-Radiology-Report/glibc-2.34/build/libc_pic.a(memmove-avx-unaligned-erms.os)
 .debug_str     0x0000000000091ebe       0x94 /teamspace/studios/this_studio/AI-Automated-Radiology-Report/glibc-2.34/build/libc_pic.a(memmove-avx512-unaligned-erms.os)
 .debug_str     0x0000000000091f52       0x93 /teamspace/studios/this_studio/AI-Automated-Radiology-Report/glibc-2.34/build/libc_pic.a(memset-sse2-unaligned-erms.os)
 .debug_str     0x0000000000091fe5       0x93 /teamspace/studios/this_studio/AI-Automated-Radiology-Report/glibc-2.34/build/libc_pic.a(memset-avx2-unaligned-erms.os)
 .debug_str     0x0000000000092078       0x93 /teamspace/studios/this_studio/AI-Automated-Radiology-Report/glibc-2.34/build/libc_pic.a(memset-avx512-unaligned-erms.os)
 .debug_str     0x000000000009210b       0x85 /teamspace/studios/this_studio/AI-Automated-Radiology-Report/glibc-2.34/build/libc_pic.a(memchr-avx2-rtm.os)
 .debug_str     0x0000000000092190       0x8b /teamspace/studios/this_studio/AI-Automated-Radiology-Report/glibc-2.34/build/libc_pic.a(memcmp-avx2-movbe-rtm.os)
 .debug_str     0x000000000009221b       0x94 /teamspace/studios/this_studio/AI-Automated-Radiology-Report/glibc-2.34/build/libc_pic.a(memmove-avx-unaligned-erms-rtm.os)
 .debug_str     0x00000000000922af       0x93 /teamspace/studios/this_studio/AI-Automated-Radiology-Report/glibc-2.34/build/libc_pic.a(memset-avx2-unaligned-erms-rtm.os)
 .debug_str     0x0000000000092342       0x85 /teamspace/studios/this_studio/AI-Automated-Radiology-Report/glibc-2.34/build/libc_pic.a(rawmemchr-avx2-rtm.os)
 .debug_str     0x00000000000923c7       0x85 /teamspace/studios/this_studio/AI-Automated-Radiology-Report/glibc-2.34/build/libc_pic.a(strchr-avx2-rtm.os)
 .debug_str     0x000000000009244c       0x85 /teamspace/studios/this_studio/AI-Automated-Radiology-Report/glibc-2.34/build/libc_pic.a(strcmp-avx2-rtm.os)
 .debug_str     0x00000000000924d1       0x85 /teamspace/studios/this_studio/AI-Automated-Radiology-Report/glibc-2.34/build/libc_pic.a(stpcpy-avx2-rtm.os)
 .debug_str     0x0000000000092556       0x85 /teamspace/studios/this_studio/AI-Automated-Radiology-Report/glibc-2.34/build/libc_pic.a(strlen-avx2-rtm.os)
 .debug_str     0x00000000000925db       0x85 /teamspace/studios/this_studio/AI-Automated-Radiology-Report/glibc-2.34/build/libc_pic.a(strncmp-avx2-rtm.os)
 .debug_str     0x0000000000092660       0x85 /teamspace/studios/this_studio/AI-Automated-Radiology-Report/glibc-2.34/build/libc_pic.a(strnlen-avx2-rtm.os)
 .debug_str     0x00000000000926e5       0x85 /teamspace/studios/this_studio/AI-Automated-Radiology-Report/glibc-2.34/build/libc_pic.a(memchr-evex.os)
 .debug_str     0x000000000009276a       0x8b /teamspace/studios/this_studio/AI-Automated-Radiology-Report/glibc-2.34/build/libc_pic.a(memcmp-evex-movbe.os)
 .debug_str     0x00000000000927f5       0x94 /teamspace/studios/this_studio/AI-Automated-Radiology-Report/glibc-2.34/build/libc_pic.a(memmove-evex-unaligned-erms.os)
 .debug_str     0x0000000000092889       0x93 /teamspace/studios/this_studio/AI-Automated-Radiology-Report/glibc-2.34/build/libc_pic.a(memset-evex-unaligned-erms.os)
 .debug_str     0x000000000009291c       0x85 /teamspace/studios/this_studio/AI-Automated-Radiology-Report/glibc-2.34/build/libc_pic.a(rawmemchr-evex.os)
 .debug_str     0x00000000000929a1       0x85 /teamspace/studios/this_studio/AI-Automated-Radiology-Report/glibc-2.34/build/libc_pic.a(stpcpy-evex.os)
 .debug_str     0x0000000000092a26       0x85 /teamspace/studios/this_studio/AI-Automated-Radiology-Report/glibc-2.34/build/libc_pic.a(strchr-evex.os)
 .debug_str     0x0000000000092aab       0x85 /teamspace/studios/this_studio/AI-Automated-Radiology-Report/glibc-2.34/build/libc_pic.a(strcmp-evex.os)
 .debug_str     0x0000000000092b30       0x85 /teamspace/studios/this_studio/AI-Automated-Radiology-Report/glibc-2.34/build/libc_pic.a(strlen-evex.os)
 .debug_str     0x0000000000092bb5       0x85 /teamspace/studios/this_studio/AI-Automated-Radiology-Report/glibc-2.34/build/libc_pic.a(strncmp-evex.os)
 .debug_str     0x0000000000092c3a       0x85 /teamspace/studios/this_studio/AI-Automated-Radiology-Report/glibc-2.34/build/libc_pic.a(strnlen-evex.os)
 .debug_str     0x0000000000092cbf       0x85 /teamspace/studios/this_studio/AI-Automated-Radiology-Report/glibc-2.34/build/libc_pic.a(memchr-evex-rtm.os)
 .debug_str     0x0000000000092d44       0x85 /teamspace/studios/this_studio/AI-Automated-Radiology-Report/glibc-2.34/build/libc_pic.a(rawmemchr-evex-rtm.os)
 .debug_str     0x0000000000092dc9     0x36d8 /teamspace/studios/this_studio/AI-Automated-Radiology-Report/glibc-2.34/build/libc_pic.a(cacheinfo.os)
 .debug_str     0x00000000000964a1      0x8c5 /teamspace/studios/this_studio/AI-Automated-Radiology-Report/glibc-2.34/build/libc_pic.a(closedir.os)
 .debug_str     0x0000000000096d66      0x965 /teamspace/studios/this_studio/AI-Automated-Radiology-Report/glibc-2.34/build/libc_pic.a(rewinddir.os)
 .debug_str     0x00000000000976cb      0x982 /teamspace/studios/this_studio/AI-Automated-Radiology-Report/glibc-2.34/build/libc_pic.a(readdir64.os)
 .debug_str     0x000000000009804d      0x9fe /teamspace/studios/this_studio/AI-Automated-Radiology-Report/glibc-2.34/build/libc_pic.a(fdopendir.os)
 .debug_str     0x0000000000098a4b       0x7d /teamspace/studios/this_studio/AI-Automated-Radiology-Report/glibc-2.34/build/libc_pic.a(uname.os)
 .debug_str     0x0000000000098ac8      0x84c /teamspace/studios/this_studio/AI-Automated-Radiology-Report/glibc-2.34/build/libc_pic.a(_exit.os)
 .debug_str     0x0000000000099314       0x7d /teamspace/studios/this_studio/AI-Automated-Radiology-Report/glibc-2.34/build/libc_pic.a(getpid.os)
 .debug_str     0x0000000000099391      0x249 /teamspace/studios/this_studio/AI-Automated-Radiology-Report/glibc-2.34/build/libc_pic.a(environ.os)
 .debug_str     0x00000000000995da      0x336 /teamspace/studios/this_studio/AI-Automated-Radiology-Report/glibc-2.34/build/libc_pic.a(stat64.os)
 .debug_str     0x0000000000099910      0x377 /teamspace/studios/this_studio/AI-Automated-Radiology-Report/glibc-2.34/build/libc_pic.a(fstat64.os)
 .debug_str     0x0000000000099c87      0x339 /teamspace/studios/this_studio/AI-Automated-Radiology-Report/glibc-2.34/build/libc_pic.a(lstat64.os)
 .debug_str     0x0000000000099fc0      0x940 /teamspace/studios/this_studio/AI-Automated-Radiology-Report/glibc-2.34/build/libc_pic.a(fstatat64.os)
 .debug_str     0x000000000009a900     0x1115 /teamspace/studios/this_studio/AI-Automated-Radiology-Report/glibc-2.34/build/libc_pic.a(openat64.os)
 .debug_str     0x000000000009ba15      0x86b /teamspace/studios/this_studio/AI-Automated-Radiology-Report/glibc-2.34/build/libc_pic.a(lseek64.os)
 .debug_str     0x000000000009c280      0x868 /teamspace/studios/this_studio/AI-Automated-Radiology-Report/glibc-2.34/build/libc_pic.a(access.os)
 .debug_str     0x000000000009cae8      0x86f /teamspace/studios/this_studio/AI-Automated-Radiology-Report/glibc-2.34/build/libc_pic.a(close_nocancel.os)
 .debug_str     0x000000000009d357      0x95c /teamspace/studios/this_studio/AI-Automated-Radiology-Report/glibc-2.34/build/libc_pic.a(fcntl_nocancel.os)
 .debug_str     0x000000000009dcb3      0x902 /teamspace/studios/this_studio/AI-Automated-Radiology-Report/glibc-2.34/build/libc_pic.a(open64_nocancel.os)
 .debug_str     0x000000000009e5b5      0x89a /teamspace/studios/this_studio/AI-Automated-Radiology-Report/glibc-2.34/build/libc_pic.a(read_nocancel.os)
 .debug_str     0x000000000009ee4f      0x8c2 /teamspace/studios/this_studio/AI-Automated-Radiology-Report/glibc-2.34/build/libc_pic.a(pread64_nocancel.os)
 .debug_str     0x000000000009f711      0x89d /teamspace/studios/this_studio/AI-Automated-Radiology-Report/glibc-2.34/build/libc_pic.a(write_nocancel.os)
 .debug_str     0x000000000009ffae     0x238e /teamspace/studios/this_studio/AI-Automated-Radiology-Report/glibc-2.34/build/libc_pic.a(mmap64.os)
 .debug_str     0x00000000000a233c       0x7c /teamspace/studios/this_studio/AI-Automated-Radiology-Report/glibc-2.34/build/libc_pic.a(munmap.os)
 .debug_str     0x00000000000a23b8       0x7c /teamspace/studios/this_studio/AI-Automated-Radiology-Report/glibc-2.34/build/libc_pic.a(mprotect.os)
 .debug_str     0x00000000000a2434      0x95f /teamspace/studios/this_studio/AI-Automated-Radiology-Report/glibc-2.34/build/libc_pic.a(profil.os)
 .debug_str     0x00000000000a2d93     0x1f1d /teamspace/studios/this_studio/AI-Automated-Radiology-Report/glibc-2.34/build/libc_pic.a(prof-freq.os)
 .debug_str     0x00000000000a4cb0      0xf44 /teamspace/studios/this_studio/AI-Automated-Radiology-Report/glibc-2.34/build/libc_pic.a(dl-addr-obj.os)
 .debug_str     0x00000000000a5bf4      0x9eb /teamspace/studios/this_studio/AI-Automated-Radiology-Report/glibc-2.34/build/libc_pic.a(sigaction.os)
 .debug_str     0x00000000000a65df      0xa25 /teamspace/studios/this_studio/AI-Automated-Radiology-Report/glibc-2.34/build/libc_pic.a(libc_sigaction.os)
 .debug_str     0x00000000000a7004      0x89f /teamspace/studios/this_studio/AI-Automated-Radiology-Report/glibc-2.34/build/libc_pic.a(setitimer.os)
 .debug_str     0x00000000000a78a3      0x827 /teamspace/studios/this_studio/AI-Automated-Radiology-Report/glibc-2.34/build/libc_pic.a(getdents64.os)

.debug_loc      0x0000000000000000    0x4e395
 *(.debug_loc)
 .debug_loc     0x0000000000000000    0x49996 /teamspace/studios/this_studio/AI-Automated-Radiology-Report/glibc-2.34/build/elf/dl-allobjs.os
 .debug_loc     0x0000000000049996      0x1bd /teamspace/studios/this_studio/AI-Automated-Radiology-Report/glibc-2.34/build/libc_pic.a(check_fds.os)
 .debug_loc     0x0000000000049b53      0x54a /teamspace/studios/this_studio/AI-Automated-Radiology-Report/glibc-2.34/build/libc_pic.a(lowlevellock.os)
 .debug_loc     0x000000000004a09d      0x39d /teamspace/studios/this_studio/AI-Automated-Radiology-Report/glibc-2.34/build/libc_pic.a(scratch_buffer_set_array_size.os)
 .debug_loc     0x000000000004a43a      0x11d /teamspace/studios/this_studio/AI-Automated-Radiology-Report/glibc-2.34/build/libc_pic.a(strdup.os)
 .debug_loc     0x000000000004a557      0xaac /teamspace/studios/this_studio/AI-Automated-Radiology-Report/glibc-2.34/build/libc_pic.a(strcspn-c.os)
 .debug_loc     0x000000000004b003      0x119 /teamspace/studios/this_studio/AI-Automated-Radiology-Report/glibc-2.34/build/libc_pic.a(cacheinfo.os)
 .debug_loc     0x000000000004b11c       0x8c /teamspace/studios/this_studio/AI-Automated-Radiology-Report/glibc-2.34/build/libc_pic.a(closedir.os)
 .debug_loc     0x000000000004b1a8      0x27a /teamspace/studios/this_studio/AI-Automated-Radiology-Report/glibc-2.34/build/libc_pic.a(rewinddir.os)
 .debug_loc     0x000000000004b422      0x444 /teamspace/studios/this_studio/AI-Automated-Radiology-Report/glibc-2.34/build/libc_pic.a(readdir64.os)
 .debug_loc     0x000000000004b866       0xe3 /teamspace/studios/this_studio/AI-Automated-Radiology-Report/glibc-2.34/build/libc_pic.a(fdopendir.os)
 .debug_loc     0x000000000004b949      0x16c /teamspace/studios/this_studio/AI-Automated-Radiology-Report/glibc-2.34/build/libc_pic.a(_exit.os)
 .debug_loc     0x000000000004bab5       0xa4 /teamspace/studios/this_studio/AI-Automated-Radiology-Report/glibc-2.34/build/libc_pic.a(stat64.os)
 .debug_loc     0x000000000004bb59       0xb9 /teamspace/studios/this_studio/AI-Automated-Radiology-Report/glibc-2.34/build/libc_pic.a(fstat64.os)
 .debug_loc     0x000000000004bc12       0xa4 /teamspace/studios/this_studio/AI-Automated-Radiology-Report/glibc-2.34/build/libc_pic.a(lstat64.os)
 .debug_loc     0x000000000004bcb6      0x265 /teamspace/studios/this_studio/AI-Automated-Radiology-Report/glibc-2.34/build/libc_pic.a(fstatat64.os)
 .debug_loc     0x000000000004bf1b      0x689 /teamspace/studios/this_studio/AI-Automated-Radiology-Report/glibc-2.34/build/libc_pic.a(openat64.os)
 .debug_loc     0x000000000004c5a4      0x10e /teamspace/studios/this_studio/AI-Automated-Radiology-Report/glibc-2.34/build/libc_pic.a(lseek64.os)
 .debug_loc     0x000000000004c6b2       0x94 /teamspace/studios/this_studio/AI-Automated-Radiology-Report/glibc-2.34/build/libc_pic.a(access.os)
 .debug_loc     0x000000000004c746       0x6f /teamspace/studios/this_studio/AI-Automated-Radiology-Report/glibc-2.34/build/libc_pic.a(close_nocancel.os)
 .debug_loc     0x000000000004c7b5      0x3d0 /teamspace/studios/this_studio/AI-Automated-Radiology-Report/glibc-2.34/build/libc_pic.a(fcntl_nocancel.os)
 .debug_loc     0x000000000004cb85      0x30c /teamspace/studios/this_studio/AI-Automated-Radiology-Report/glibc-2.34/build/libc_pic.a(open64_nocancel.os)
 .debug_loc     0x000000000004ce91      0x10e /teamspace/studios/this_studio/AI-Automated-Radiology-Report/glibc-2.34/build/libc_pic.a(read_nocancel.os)
 .debug_loc     0x000000000004cf9f      0x182 /teamspace/studios/this_studio/AI-Automated-Radiology-Report/glibc-2.34/build/libc_pic.a(pread64_nocancel.os)
 .debug_loc     0x000000000004d121      0x10e /teamspace/studios/this_studio/AI-Automated-Radiology-Report/glibc-2.34/build/libc_pic.a(write_nocancel.os)
 .debug_loc     0x000000000004d22f      0x60d /teamspace/studios/this_studio/AI-Automated-Radiology-Report/glibc-2.34/build/libc_pic.a(mmap64.os)
 .debug_loc     0x000000000004d83c      0x3da /teamspace/studios/this_studio/AI-Automated-Radiology-Report/glibc-2.34/build/libc_pic.a(profil.os)
 .debug_loc     0x000000000004dc16      0x10a /teamspace/studios/this_studio/AI-Automated-Radiology-Report/glibc-2.34/build/libc_pic.a(dl-addr-obj.os)
 .debug_loc     0x000000000004dd20      0x11b /teamspace/studios/this_studio/AI-Automated-Radiology-Report/glibc-2.34/build/libc_pic.a(sigaction.os)
 .debug_loc     0x000000000004de3b      0x295 /teamspace/studios/this_studio/AI-Automated-Radiology-Report/glibc-2.34/build/libc_pic.a(libc_sigaction.os)
 .debug_loc     0x000000000004e0d0      0x10e /teamspace/studios/this_studio/AI-Automated-Radiology-Report/glibc-2.34/build/libc_pic.a(setitimer.os)
 .debug_loc     0x000000000004e1de      0x1b7 /teamspace/studios/this_studio/AI-Automated-Radiology-Report/glibc-2.34/build/libc_pic.a(getdents64.os)

.debug_macinfo
 *(.debug_macinfo)

.debug_weaknames
 *(.debug_weaknames)

.debug_funcnames
 *(.debug_funcnames)

.debug_typenames
 *(.debug_typenames)

.debug_varnames
 *(.debug_varnames)

.debug_pubtypes
 *(.debug_pubtypes)

.debug_ranges   0x0000000000000000     0xccb0
 *(.debug_ranges)
 .debug_ranges  0x0000000000000000     0xbe00 /teamspace/studios/this_studio/AI-Automated-Radiology-Report/glibc-2.34/build/elf/dl-allobjs.os
 .debug_ranges  0x000000000000be00       0xc0 /teamspace/studios/this_studio/AI-Automated-Radiology-Report/glibc-2.34/build/libc_pic.a(lowlevellock.os)
 .debug_ranges  0x000000000000bec0       0x30 /teamspace/studios/this_studio/AI-Automated-Radiology-Report/glibc-2.34/build/libc_pic.a(scratch_buffer_set_array_size.os)
 .debug_ranges  0x000000000000bef0       0x40 /teamspace/studios/this_studio/AI-Automated-Radiology-Report/glibc-2.34/build/libc_pic.a(strchr.os)
 .debug_ranges  0x000000000000bf30       0x40 /teamspace/studios/this_studio/AI-Automated-Radiology-Report/glibc-2.34/build/libc_pic.a(strcmp.os)
 .debug_ranges  0x000000000000bf70       0x40 /teamspace/studios/this_studio/AI-Automated-Radiology-Report/glibc-2.34/build/libc_pic.a(strlen.os)
 .debug_ranges  0x000000000000bfb0       0x40 /teamspace/studios/this_studio/AI-Automated-Radiology-Report/glibc-2.34/build/libc_pic.a(strnlen.os)
 .debug_ranges  0x000000000000bff0       0x30 /teamspace/studios/this_studio/AI-Automated-Radiology-Report/glibc-2.34/build/libc_pic.a(strncmp.os)
 .debug_ranges  0x000000000000c020       0x40 /teamspace/studios/this_studio/AI-Automated-Radiology-Report/glibc-2.34/build/libc_pic.a(memchr.os)
 .debug_ranges  0x000000000000c060       0x40 /teamspace/studios/this_studio/AI-Automated-Radiology-Report/glibc-2.34/build/libc_pic.a(memcmp.os)
 .debug_ranges  0x000000000000c0a0       0x30 /teamspace/studios/this_studio/AI-Automated-Radiology-Report/glibc-2.34/build/libc_pic.a(memmove.os)
 .debug_ranges  0x000000000000c0d0       0x30 /teamspace/studios/this_studio/AI-Automated-Radiology-Report/glibc-2.34/build/libc_pic.a(memset.os)
 .debug_ranges  0x000000000000c100       0x30 /teamspace/studios/this_studio/AI-Automated-Radiology-Report/glibc-2.34/build/libc_pic.a(mempcpy.os)
 .debug_ranges  0x000000000000c130       0x40 /teamspace/studios/this_studio/AI-Automated-Radiology-Report/glibc-2.34/build/libc_pic.a(stpcpy.os)
 .debug_ranges  0x000000000000c170       0x30 /teamspace/studios/this_studio/AI-Automated-Radiology-Report/glibc-2.34/build/libc_pic.a(memcpy.os)
 .debug_ranges  0x000000000000c1a0       0x40 /teamspace/studios/this_studio/AI-Automated-Radiology-Report/glibc-2.34/build/libc_pic.a(rawmemchr.os)
 .debug_ranges  0x000000000000c1e0      0x370 /teamspace/studios/this_studio/AI-Automated-Radiology-Report/glibc-2.34/build/libc_pic.a(strcspn-c.os)
 .debug_ranges  0x000000000000c550       0xe0 /teamspace/studios/this_studio/AI-Automated-Radiology-Report/glibc-2.34/build/libc_pic.a(rewinddir.os)
 .debug_ranges  0x000000000000c630      0x120 /teamspace/studios/this_studio/AI-Automated-Radiology-Report/glibc-2.34/build/libc_pic.a(readdir64.os)
 .debug_ranges  0x000000000000c750       0xd0 /teamspace/studios/this_studio/AI-Automated-Radiology-Report/glibc-2.34/build/libc_pic.a(_exit.os)
 .debug_ranges  0x000000000000c820      0x110 /teamspace/studios/this_studio/AI-Automated-Radiology-Report/glibc-2.34/build/libc_pic.a(openat64.os)
 .debug_ranges  0x000000000000c930       0x30 /teamspace/studios/this_studio/AI-Automated-Radiology-Report/glibc-2.34/build/libc_pic.a(lseek64.os)
 .debug_ranges  0x000000000000c960       0x30 /teamspace/studios/this_studio/AI-Automated-Radiology-Report/glibc-2.34/build/libc_pic.a(access.os)
 .debug_ranges  0x000000000000c990       0x30 /teamspace/studios/this_studio/AI-Automated-Radiology-Report/glibc-2.34/build/libc_pic.a(close_nocancel.os)
 .debug_ranges  0x000000000000c9c0       0x60 /teamspace/studios/this_studio/AI-Automated-Radiology-Report/glibc-2.34/build/libc_pic.a(fcntl_nocancel.os)
 .debug_ranges  0x000000000000ca20       0x30 /teamspace/studios/this_studio/AI-Automated-Radiology-Report/glibc-2.34/build/libc_pic.a(open64_nocancel.os)
 .debug_ranges  0x000000000000ca50       0x30 /teamspace/studios/this_studio/AI-Automated-Radiology-Report/glibc-2.34/build/libc_pic.a(read_nocancel.os)
 .debug_ranges  0x000000000000ca80       0x70 /teamspace/studios/this_studio/AI-Automated-Radiology-Report/glibc-2.34/build/libc_pic.a(pread64_nocancel.os)
 .debug_ranges  0x000000000000caf0       0x30 /teamspace/studios/this_studio/AI-Automated-Radiology-Report/glibc-2.34/build/libc_pic.a(write_nocancel.os)
 .debug_ranges  0x000000000000cb20       0x40 /teamspace/studios/this_studio/AI-Automated-Radiology-Report/glibc-2.34/build/libc_pic.a(mmap64.os)
 .debug_ranges  0x000000000000cb60       0xf0 /teamspace/studios/this_studio/AI-Automated-Radiology-Report/glibc-2.34/build/libc_pic.a(libc_sigaction.os)
 .debug_ranges  0x000000000000cc50       0x30 /teamspace/studios/this_studio/AI-Automated-Radiology-Report/glibc-2.34/build/libc_pic.a(setitimer.os)
 .debug_ranges  0x000000000000cc80       0x30 /teamspace/studios/this_studio/AI-Automated-Radiology-Report/glibc-2.34/build/libc_pic.a(getdents64.os)

.debug_macro
 *(.debug_macro)

.debug_addr
 *(.debug_addr)

.gnu.attributes
 *(.gnu.attributes)
OUTPUT(/teamspace/studios/this_studio/AI-Automated-Radiology-Report/glibc-2.34/build/elf/librtld.map.o elf64-x86-64)
